(lp0
I112
aI2
aI-1
a(lp1
F4297.77
aF4447.71
aF4284.0
aF4278.9
aF4185.06
aF4433.9400000000005
aF4429.35
aF3592.9500000000003
aF3869.88
aF4090.71
aF3930.57
aF3059.4900000000002
aF3982.59
aF4025.94
aa(lp2
I0
aI0
aI0
aI0
aI0
aI0
aI0
aI0
aI0
aI0
aI0
aI0
aI0
aI0
aaI00
a.(lp0
I113
aI2
aI-1
a(lp1
F4297.77
aF4447.71
aF4284.0
aF4278.9
aF4185.06
aF4433.9400000000005
aF4429.35
aF3592.9500000000003
aF3869.88
aF4090.71
aF3930.57
aF3059.4900000000002
aF3982.59
aF4025.94
aa(lp2
I0
aI0
aI0
aI0
aI0
aI0
aI0
aI0
aI0
aI0
aI0
aI0
aI0
aI0
aaI00
a.(lp0
I114
aI2
aI-1
a(lp1
F4297.77
aF4447.71
aF4284.0
aF4278.9
aF4185.06
aF4433.9400000000005
aF4429.35
aF3592.9500000000003
aF3869.88
aF4090.71
aF3930.57
aF3059.4900000000002
aF3982.59
aF4025.94
aa(lp2
I0
aI0
aI0
aI0
aI0
aI0
aI0
aI0
aI0
aI0
aI0
aI0
aI0
aI0
aaI00
a.(lp0
I115
aI2
aI-1
a(lp1
F4297.77
aF4447.71
aF4284.0
aF4278.9
aF4185.06
aF4433.9400000000005
aF4429.35
aF3592.9500000000003
aF3869.88
aF4090.71
aF3930.57
aF3059.4900000000002
aF3982.59
aF4025.94
aa(lp2
I0
aI0
aI0
aI0
aI0
aI0
aI0
aI0
aI0
aI0
aI0
aI0
aI0
aI0
aaI00
a.(lp0
I116
aI2
aI-1
a(lp1
F4297.77
aF4447.71
aF4284.0
aF4278.9
aF4185.06
aF4433.9400000000005
aF4429.35
aF3592.9500000000003
aF3869.88
aF4090.71
aF3930.57
aF3059.4900000000002
aF3982.59
aF4025.94
aa(lp2
I0
aI0
aI0
aI0
aI0
aI0
aI0
aI0
aI0
aI0
aI0
aI0
aI0
aI0
aaI00
a.(lp0
I117
aI2
aI-1
a(lp1
F4297.77
aF4447.71
aF4284.0
aF4278.9
aF4185.06
aF4433.9400000000005
aF4429.35
aF3592.9500000000003
aF3869.88
aF4090.71
aF3930.57
aF3059.4900000000002
aF3982.59
aF4025.94
aa(lp2
I0
aI0
aI0
aI0
aI0
aI0
aI0
aI0
aI0
aI0
aI0
aI0
aI0
aI0
aaI00
a.(lp0
I118
aI2
aI-1
a(lp1
F4297.77
aF4447.71
aF4284.0
aF4278.9
aF4185.06
aF4433.9400000000005
aF4429.35
aF3592.9500000000003
aF3869.88
aF4090.71
aF3930.57
aF3059.4900000000002
aF3982.59
aF4025.94
aa(lp2
I0
aI0
aI0
aI0
aI0
aI0
aI0
aI0
aI0
aI0
aI0
aI0
aI0
aI0
aaI00
a.(lp0
I119
aI2
aI-1
a(lp1
F4297.77
aF4447.71
aF4284.0
aF4278.9
aF4185.06
aF4433.9400000000005
aF4429.35
aF3592.9500000000003
aF3869.88
aF4090.71
aF3930.57
aF3059.4900000000002
aF3982.59
aF4025.94
aa(lp2
I0
aI0
aI0
aI0
aI0
aI0
aI0
aI0
aI0
aI0
aI0
aI0
aI0
aI0
aaI00
a.(lp0
I120
aI2
aI-1
a(lp1
F4295.22
aF4443.12
aF4278.9
aF4274.82
aF4179.45
aF4431.9
aF4429.35
aF3570.0
aF3835.71
aF4072.35
aF3919.35
aF3022.26
aF3958.62
aF4025.4300000000003
aa(lp2
I0
aI0
aI0
aI0
aI0
aI0
aI0
aI0
aI0
aI0
aI0
aI0
aI0
aI0
aaI00
a.(lp0
I121
aI2
aI-1
a(lp1
F4295.22
aF4443.12
aF4278.9
aF4274.82
aF4179.45
aF4431.9
aF4429.35
aF3570.0
aF3835.71
aF4072.35
aF3919.35
aF3022.26
aF3958.62
aF4025.4300000000003
aa(lp2
I0
aI0
aI0
aI0
aI0
aI0
aI0
aI0
aI0
aI0
aI0
aI0
aI0
aI0
aaI00
a.(lp0
I122
aI2
aI-1
a(lp1
F4295.22
aF4443.12
aF4278.9
aF4274.82
aF4179.45
aF4431.9
aF4429.35
aF3570.0
aF3835.71
aF4072.35
aF3919.35
aF3022.26
aF3958.62
aF4025.4300000000003
aa(lp2
I0
aI0
aI0
aI0
aI0
aI0
aI0
aI0
aI0
aI0
aI0
aI0
aI0
aI0
aaI00
a.(lp0
I123
aI2
aI-1
a(lp1
F4295.22
aF4443.12
aF4278.9
aF4274.82
aF4179.45
aF4431.9
aF4429.35
aF3570.0
aF3835.71
aF4072.35
aF3919.35
aF3022.26
aF3958.62
aF4025.4300000000003
aa(lp2
I0
aI0
aI0
aI0
aI0
aI0
aI0
aI0
aI0
aI0
aI0
aI0
aI0
aI0
aaI00
a.(lp0
I124
aI2
aI-1
a(lp1
F4295.22
aF4443.12
aF4278.9
aF4274.82
aF4179.45
aF4431.9
aF4429.35
aF3570.0
aF3835.71
aF4072.35
aF3919.35
aF3022.26
aF3958.62
aF4025.4300000000003
aa(lp2
I0
aI0
aI0
aI0
aI0
aI0
aI0
aI0
aI0
aI0
aI0
aI0
aI0
aI0
aaI00
a.(lp0
I125
aI2
aI-1
a(lp1
F4295.22
aF4443.12
aF4278.9
aF4274.82
aF4179.45
aF4431.9
aF4429.35
aF3570.0
aF3835.71
aF4072.35
aF3919.35
aF3022.26
aF3958.62
aF4025.4300000000003
aa(lp2
I0
aI0
aI0
aI0
aI0
aI0
aI0
aI0
aI0
aI0
aI0
aI0
aI0
aI0
aaI00
a.(lp0
I126
aI2
aI-1
a(lp1
F4295.22
aF4443.12
aF4278.9
aF4274.82
aF4179.45
aF4431.9
aF4429.35
aF3570.0
aF3835.71
aF4072.35
aF3919.35
aF3022.26
aF3958.62
aF4025.4300000000003
aa(lp2
I0
aI0
aI0
aI0
aI0
aI0
aI0
aI0
aI0
aI0
aI0
aI0
aI0
aI0
aaI00
a.(lp0
I127
aI2
aI-1
a(lp1
F4295.22
aF4443.12
aF4278.9
aF4274.82
aF4179.45
aF4431.9
aF4429.35
aF3570.0
aF3835.71
aF4072.35
aF3919.35
aF3022.26
aF3958.62
aF4025.4300000000003
aa(lp2
I0
aI0
aI0
aI0
aI0
aI0
aI0
aI0
aI0
aI0
aI0
aI0
aI0
aI0
aaI00
a.(lp0
I128
aI2
aI-1
a(lp1
F4293.18
aF4438.02
aF4274.31
aF4274.82
aF4178.43
aF4430.37
aF4429.35
aF3541.9500000000003
aF3801.54
aF4063.6800000000003
aF3898.9500000000003
aF2994.21
aF3932.1
aF4015.7400000000002
aa(lp2
I0
aI0
aI0
aI0
aI0
aI0
aI0
aI0
aI0
aI0
aI0
aI0
aI0
aI0
aaI00
a.(lp0
I0
aI2
aI-1
a(lp1
F4293.18
aF4438.02
aF4274.31
aF4274.82
aF4178.43
aF4430.37
aF4429.35
aF3541.9500000000003
aF3801.54
aF4063.6800000000003
aF3898.9500000000003
aF2994.21
aF3932.1
aF4015.7400000000002
aa(lp2
I0
aI0
aI0
aI0
aI0
aI0
aI0
aI0
aI0
aI0
aI0
aI0
aI0
aI0
aaI00
a.(lp0
I1
aI2
aI-1
a(lp1
F4293.18
aF4438.02
aF4274.31
aF4274.82
aF4178.43
aF4430.37
aF4429.35
aF3541.9500000000003
aF3801.54
aF4063.6800000000003
aF3898.9500000000003
aF2994.21
aF3932.1
aF4015.7400000000002
aa(lp2
I0
aI0
aI0
aI0
aI0
aI0
aI0
aI0
aI0
aI0
aI0
aI0
aI0
aI0
aaI00
a.(lp0
I2
aI2
aI-1
a(lp1
F4293.18
aF4438.02
aF4274.31
aF4274.82
aF4178.43
aF4430.37
aF4429.35
aF3541.9500000000003
aF3801.54
aF4063.6800000000003
aF3898.9500000000003
aF2994.21
aF3932.1
aF4015.7400000000002
aa(lp2
I0
aI0
aI0
aI0
aI0
aI0
aI0
aI0
aI0
aI0
aI0
aI0
aI0
aI0
aaI00
a.(lp0
I3
aI2
aI-1
a(lp1
F4293.18
aF4438.02
aF4274.31
aF4274.82
aF4178.43
aF4430.37
aF4429.35
aF3541.9500000000003
aF3801.54
aF4063.6800000000003
aF3898.9500000000003
aF2994.21
aF3932.1
aF4015.7400000000002
aa(lp2
I0
aI0
aI0
aI0
aI0
aI0
aI0
aI0
aI0
aI0
aI0
aI0
aI0
aI0
aaI00
a.(lp0
I4
aI2
aI-1
a(lp1
F4293.18
aF4438.02
aF4274.31
aF4274.82
aF4178.43
aF4430.37
aF4429.35
aF3541.9500000000003
aF3801.54
aF4063.6800000000003
aF3898.9500000000003
aF2994.21
aF3932.1
aF4015.7400000000002
aa(lp2
I0
aI0
aI0
aI0
aI0
aI0
aI0
aI0
aI0
aI0
aI0
aI0
aI0
aI0
aaI00
a.(lp0
I5
aI2
aI-1
a(lp1
F4293.18
aF4438.02
aF4274.31
aF4274.82
aF4178.43
aF4430.37
aF4429.35
aF3541.9500000000003
aF3801.54
aF4063.6800000000003
aF3898.9500000000003
aF2994.21
aF3932.1
aF4015.7400000000002
aa(lp2
I0
aI0
aI0
aI0
aI0
aI0
aI0
aI0
aI0
aI0
aI0
aI0
aI0
aI0
aaI00
a.(lp0
I6
aI2
aI-1
a(lp1
F4293.18
aF4438.02
aF4274.31
aF4274.82
aF4178.43
aF4430.37
aF4429.35
aF3541.9500000000003
aF3801.54
aF4063.6800000000003
aF3898.9500000000003
aF2994.21
aF3932.1
aF4015.7400000000002
aa(lp2
I0
aI0
aI0
aI0
aI0
aI0
aI0
aI0
aI0
aI0
aI0
aI0
aI0
aI0
aaI00
a.(lp0
I7
aI2
aI-1
a(lp1
F4295.7300000000005
aF4442.1
aF4277.88
aF4276.86
aF4182.0
aF4430.88
aF4429.86
aF3561.84
aF3826.02
aF4084.08
aF3905.58
aF3003.39
aF3955.05
aF4019.31
aa(lp2
I0
aI0
aI0
aI0
aI0
aI0
aI0
aI0
aI0
aI0
aI0
aI0
aI0
aI0
aaI00
a.(lp0
I8
aI2
aI-1
a(lp1
F4295.7300000000005
aF4442.1
aF4277.88
aF4276.86
aF4182.0
aF4430.88
aF4429.86
aF3561.84
aF3826.02
aF4084.08
aF3905.58
aF3003.39
aF3955.05
aF4019.31
aa(lp2
I0
aI0
aI0
aI0
aI0
aI0
aI0
aI0
aI0
aI0
aI0
aI0
aI0
aI0
aaI00
a.(lp0
I9
aI2
aI-1
a(lp1
F4295.7300000000005
aF4442.1
aF4277.88
aF4276.86
aF4182.0
aF4430.88
aF4429.86
aF3561.84
aF3826.02
aF4084.08
aF3905.58
aF3003.39
aF3955.05
aF4019.31
aa(lp2
I0
aI0
aI0
aI0
aI0
aI0
aI0
aI0
aI0
aI0
aI0
aI0
aI0
aI0
aaI00
a.(lp0
I10
aI2
aI-1
a(lp1
F4295.7300000000005
aF4442.1
aF4277.88
aF4276.86
aF4182.0
aF4430.88
aF4429.86
aF3561.84
aF3826.02
aF4084.08
aF3905.58
aF3003.39
aF3955.05
aF4019.31
aa(lp2
I0
aI0
aI0
aI0
aI0
aI0
aI0
aI0
aI0
aI0
aI0
aI0
aI0
aI0
aaI00
a.(lp0
I11
aI2
aI-1
a(lp1
F4295.7300000000005
aF4442.1
aF4277.88
aF4276.86
aF4182.0
aF4430.88
aF4429.86
aF3561.84
aF3826.02
aF4084.08
aF3905.58
aF3003.39
aF3955.05
aF4019.31
aa(lp2
I0
aI0
aI0
aI0
aI0
aI0
aI0
aI0
aI0
aI0
aI0
aI0
aI0
aI0
aaI00
a.(lp0
I12
aI2
aI-1
a(lp1
F4295.7300000000005
aF4442.1
aF4277.88
aF4276.86
aF4182.0
aF4430.88
aF4429.86
aF3561.84
aF3826.02
aF4084.08
aF3905.58
aF3003.39
aF3955.05
aF4019.31
aa(lp2
I0
aI0
aI0
aI0
aI0
aI0
aI0
aI0
aI0
aI0
aI0
aI0
aI0
aI0
aaI00
a.(lp0
I13
aI2
aI-1
a(lp1
F4295.7300000000005
aF4442.1
aF4277.88
aF4276.86
aF4182.0
aF4430.88
aF4429.86
aF3561.84
aF3826.02
aF4084.08
aF3905.58
aF3003.39
aF3955.05
aF4019.31
aa(lp2
I0
aI0
aI0
aI0
aI0
aI0
aI0
aI0
aI0
aI0
aI0
aI0
aI0
aI0
aaI00
a.(lp0
I14
aI2
aI-1
a(lp1
F4295.7300000000005
aF4442.1
aF4277.88
aF4276.86
aF4182.0
aF4430.88
aF4429.86
aF3561.84
aF3826.02
aF4084.08
aF3905.58
aF3003.39
aF3955.05
aF4019.31
aa(lp2
I0
aI0
aI0
aI0
aI0
aI0
aI0
aI0
aI0
aI0
aI0
aI0
aI0
aI0
aaI00
a.(lp0
I15
aI2
aI-1
a(lp1
F4299.3
aF4448.22
aF4285.53
aF4275.84
aF4187.1
aF4433.9400000000005
aF4431.9
aF3601.11
aF3872.94
aF4098.87
aF3929.55
aF3040.62
aF3997.89
aF4031.04
aa(lp2
I0
aI0
aI0
aI0
aI0
aI0
aI0
aI0
aI0
aI0
aI0
aI0
aI0
aI0
aaI00
a.(lp0
I16
aI2
aI-1
a(lp1
F4299.3
aF4448.22
aF4285.53
aF4275.84
aF4187.1
aF4433.9400000000005
aF4431.9
aF3601.11
aF3872.94
aF4098.87
aF3929.55
aF3040.62
aF3997.89
aF4031.04
aa(lp2
I0
aI0
aI0
aI0
aI0
aI0
aI0
aI0
aI0
aI0
aI0
aI0
aI0
aI0
aaI00
a.(lp0
I17
aI2
aI-1
a(lp1
F4299.3
aF4448.22
aF4285.53
aF4275.84
aF4187.1
aF4433.9400000000005
aF4431.9
aF3601.11
aF3872.94
aF4098.87
aF3929.55
aF3040.62
aF3997.89
aF4031.04
aa(lp2
I0
aI0
aI0
aI0
aI0
aI0
aI0
aI0
aI0
aI0
aI0
aI0
aI0
aI0
aaI00
a.(lp0
I18
aI2
aI-1
a(lp1
F4299.3
aF4448.22
aF4285.53
aF4275.84
aF4187.1
aF4433.9400000000005
aF4431.9
aF3601.11
aF3872.94
aF4098.87
aF3929.55
aF3040.62
aF3997.89
aF4031.04
aa(lp2
I0
aI0
aI0
aI0
aI0
aI0
aI0
aI0
aI0
aI0
aI0
aI0
aI0
aI0
aaI00
a.(lp0
I19
aI2
aI-1
a(lp1
F4299.3
aF4448.22
aF4285.53
aF4275.84
aF4187.1
aF4433.9400000000005
aF4431.9
aF3601.11
aF3872.94
aF4098.87
aF3929.55
aF3040.62
aF3997.89
aF4031.04
aa(lp2
I0
aI0
aI0
aI0
aI0
aI0
aI0
aI0
aI0
aI0
aI0
aI0
aI0
aI0
aaI00
a.(lp0
I20
aI2
aI-1
a(lp1
F4299.3
aF4448.22
aF4285.53
aF4275.84
aF4187.1
aF4433.9400000000005
aF4431.9
aF3601.11
aF3872.94
aF4098.87
aF3929.55
aF3040.62
aF3997.89
aF4031.04
aa(lp2
I0
aI0
aI0
aI0
aI0
aI0
aI0
aI0
aI0
aI0
aI0
aI0
aI0
aI0
aaI00
a.(lp0
I21
aI2
aI-1
a(lp1
F4299.3
aF4448.22
aF4285.53
aF4275.84
aF4187.1
aF4433.9400000000005
aF4431.9
aF3601.11
aF3872.94
aF4098.87
aF3929.55
aF3040.62
aF3997.89
aF4031.04
aa(lp2
I0
aI0
aI0
aI0
aI0
aI0
aI0
aI0
aI0
aI0
aI0
aI0
aI0
aI0
aaI00
a.(lp0
I22
aI2
aI-1
a(lp1
F4299.3
aF4448.22
aF4285.53
aF4275.84
aF4187.1
aF4433.9400000000005
aF4431.9
aF3601.11
aF3872.94
aF4098.87
aF3929.55
aF3040.62
aF3997.89
aF4031.04
aa(lp2
I0
aI0
aI0
aI0
aI0
aI0
aI0
aI0
aI0
aI0
aI0
aI0
aI0
aI0
aaI00
a.(lp0
I23
aI2
aI-1
a(lp1
F4299.81
aF4446.18
aF4289.1
aF4276.86
aF4187.61
aF4437.0
aF4432.41
aF3595.5
aF3867.33
aF4084.08
aF3931.59
aF3055.92
aF3989.73
aF4027.98
aa(lp2
I0
aI0
aI0
aI0
aI0
aI0
aI0
aI0
aI0
aI0
aI0
aI0
aI0
aI0
aaI00
a.(lp0
I24
aI2
aI-1
a(lp1
F4299.81
aF4446.18
aF4289.1
aF4276.86
aF4187.61
aF4437.0
aF4432.41
aF3595.5
aF3867.33
aF4084.08
aF3931.59
aF3055.92
aF3989.73
aF4027.98
aa(lp2
I0
aI0
aI0
aI0
aI0
aI0
aI0
aI0
aI0
aI0
aI0
aI0
aI0
aI0
aaI00
a.(lp0
I25
aI2
aI-1
a(lp1
F4299.81
aF4446.18
aF4289.1
aF4276.86
aF4187.61
aF4437.0
aF4432.41
aF3595.5
aF3867.33
aF4084.08
aF3931.59
aF3055.92
aF3989.73
aF4027.98
aa(lp2
I0
aI0
aI0
aI0
aI0
aI0
aI0
aI0
aI0
aI0
aI0
aI0
aI0
aI0
aaI00
a.(lp0
I26
aI2
aI-1
a(lp1
F4299.81
aF4446.18
aF4289.1
aF4276.86
aF4187.61
aF4437.0
aF4432.41
aF3595.5
aF3867.33
aF4084.08
aF3931.59
aF3055.92
aF3989.73
aF4027.98
aa(lp2
I0
aI0
aI0
aI0
aI0
aI0
aI0
aI0
aI0
aI0
aI0
aI0
aI0
aI0
aaI00
a.(lp0
I27
aI2
aI-1
a(lp1
F4299.81
aF4446.18
aF4289.1
aF4276.86
aF4187.61
aF4437.0
aF4432.41
aF3595.5
aF3867.33
aF4084.08
aF3931.59
aF3055.92
aF3989.73
aF4027.98
aa(lp2
I0
aI0
aI0
aI0
aI0
aI0
aI0
aI0
aI0
aI0
aI0
aI0
aI0
aI0
aaI00
a.(lp0
I28
aI2
aI-1
a(lp1
F4299.81
aF4446.18
aF4289.1
aF4276.86
aF4187.61
aF4437.0
aF4432.41
aF3595.5
aF3867.33
aF4084.08
aF3931.59
aF3055.92
aF3989.73
aF4027.98
aa(lp2
I0
aI0
aI0
aI0
aI0
aI0
aI0
aI0
aI0
aI0
aI0
aI0
aI0
aI0
aaI00
a.(lp0
I29
aI2
aI-1
a(lp1
F4299.81
aF4446.18
aF4289.1
aF4276.86
aF4187.61
aF4437.0
aF4432.41
aF3595.5
aF3867.33
aF4084.08
aF3931.59
aF3055.92
aF3989.73
aF4027.98
aa(lp2
I0
aI0
aI0
aI0
aI0
aI0
aI0
aI0
aI0
aI0
aI0
aI0
aI0
aI0
aaI00
a.(lp0
I30
aI2
aI-1
a(lp1
F4299.81
aF4446.18
aF4289.1
aF4276.86
aF4187.61
aF4437.0
aF4432.41
aF3595.5
aF3867.33
aF4084.08
aF3931.59
aF3055.92
aF3989.73
aF4027.98
aa(lp2
I0
aI0
aI0
aI0
aI0
aI0
aI0
aI0
aI0
aI0
aI0
aI0
aI0
aI0
aaI00
a.(lp0
I31
aI2
aI-1
a(lp1
F4298.28
aF4440.57
aF4281.45
aF4276.35
aF4180.47
aF4433.43
aF4429.86
aF3557.25
aF3820.92
aF4066.7400000000002
aF3909.15
aF3057.4500000000003
aF3949.44
aF4018.29
aa(lp2
I0
aI0
aI0
aI0
aI0
aI0
aI0
aI0
aI0
aI0
aI0
aI0
aI0
aI0
aaI00
a.(lp0
I32
aI2
aI-1
a(lp1
F4298.28
aF4440.57
aF4281.45
aF4276.35
aF4180.47
aF4433.43
aF4429.86
aF3557.25
aF3820.92
aF4066.7400000000002
aF3909.15
aF3057.4500000000003
aF3949.44
aF4018.29
aa(lp2
I0
aI0
aI0
aI0
aI0
aI0
aI0
aI0
aI0
aI0
aI0
aI0
aI0
aI0
aaI00
a.(lp0
I33
aI2
aI-1
a(lp1
F4298.28
aF4440.57
aF4281.45
aF4276.35
aF4180.47
aF4433.43
aF4429.86
aF3557.25
aF3820.92
aF4066.7400000000002
aF3909.15
aF3057.4500000000003
aF3949.44
aF4018.29
aa(lp2
I0
aI0
aI0
aI0
aI0
aI0
aI0
aI0
aI0
aI0
aI0
aI0
aI0
aI0
aaI00
a.(lp0
I34
aI2
aI-1
a(lp1
F4298.28
aF4440.57
aF4281.45
aF4276.35
aF4180.47
aF4433.43
aF4429.86
aF3557.25
aF3820.92
aF4066.7400000000002
aF3909.15
aF3057.4500000000003
aF3949.44
aF4018.29
aa(lp2
I0
aI0
aI0
aI0
aI0
aI0
aI0
aI0
aI0
aI0
aI0
aI0
aI0
aI0
aaI00
a.(lp0
I35
aI2
aI-1
a(lp1
F4298.28
aF4440.57
aF4281.45
aF4276.35
aF4180.47
aF4433.43
aF4429.86
aF3557.25
aF3820.92
aF4066.7400000000002
aF3909.15
aF3057.4500000000003
aF3949.44
aF4018.29
aa(lp2
I0
aI0
aI0
aI0
aI0
aI0
aI0
aI0
aI0
aI0
aI0
aI0
aI0
aI0
aaI00
a.(lp0
I36
aI2
aI-1
a(lp1
F4298.28
aF4440.57
aF4281.45
aF4276.35
aF4180.47
aF4433.43
aF4429.86
aF3557.25
aF3820.92
aF4066.7400000000002
aF3909.15
aF3057.4500000000003
aF3949.44
aF4018.29
aa(lp2
I0
aI0
aI0
aI0
aI0
aI0
aI0
aI0
aI0
aI0
aI0
aI0
aI0
aI0
aaI00
a.(lp0
I37
aI2
aI-1
a(lp1
F4298.28
aF4440.57
aF4281.45
aF4276.35
aF4180.47
aF4433.43
aF4429.86
aF3557.25
aF3820.92
aF4066.7400000000002
aF3909.15
aF3057.4500000000003
aF3949.44
aF4018.29
aa(lp2
I0
aI0
aI0
aI0
aI0
aI0
aI0
aI0
aI0
aI0
aI0
aI0
aI0
aI0
aaI00
a.(lp0
I38
aI2
aI-1
a(lp1
F4298.28
aF4440.57
aF4281.45
aF4276.35
aF4180.47
aF4433.43
aF4429.86
aF3557.25
aF3820.92
aF4066.7400000000002
aF3909.15
aF3057.4500000000003
aF3949.44
aF4018.29
aa(lp2
I0
aI0
aI0
aI0
aI0
aI0
aI0
aI0
aI0
aI0
aI0
aI0
aI0
aI0
aaI00
a.(lp0
I39
aI2
aI-1
a(lp1
F4296.24
aF4440.06
aF4273.29
aF4274.31
aF4176.39
aF4429.35
aF4431.39
aF3547.05
aF3802.56
aF4072.86
aF3896.4
aF3045.7200000000003
aF3933.63
aF4010.13
aa(lp2
I0
aI0
aI0
aI0
aI0
aI0
aI0
aI0
aI0
aI0
aI0
aI0
aI0
aI0
aaI00
a.(lp0
I40
aI2
aI-1
a(lp1
F4296.24
aF4440.06
aF4273.29
aF4274.31
aF4176.39
aF4429.35
aF4431.39
aF3547.05
aF3802.56
aF4072.86
aF3896.4
aF3045.7200000000003
aF3933.63
aF4010.13
aa(lp2
I0
aI0
aI0
aI0
aI0
aI0
aI0
aI0
aI0
aI0
aI0
aI0
aI0
aI0
aaI00
a.(lp0
I41
aI2
aI-1
a(lp1
F4296.24
aF4440.06
aF4273.29
aF4274.31
aF4176.39
aF4429.35
aF4431.39
aF3547.05
aF3802.56
aF4072.86
aF3896.4
aF3045.7200000000003
aF3933.63
aF4010.13
aa(lp2
I0
aI0
aI0
aI0
aI0
aI0
aI0
aI0
aI0
aI0
aI0
aI0
aI0
aI0
aaI00
a.(lp0
I42
aI2
aI-1
a(lp1
F4296.24
aF4440.06
aF4273.29
aF4274.31
aF4176.39
aF4429.35
aF4431.39
aF3547.05
aF3802.56
aF4072.86
aF3896.4
aF3045.7200000000003
aF3933.63
aF4010.13
aa(lp2
I0
aI0
aI0
aI0
aI0
aI0
aI0
aI0
aI0
aI0
aI0
aI0
aI0
aI0
aaI00
a.(lp0
I43
aI2
aI-1
a(lp1
F4296.24
aF4440.06
aF4273.29
aF4274.31
aF4176.39
aF4429.35
aF4431.39
aF3547.05
aF3802.56
aF4072.86
aF3896.4
aF3045.7200000000003
aF3933.63
aF4010.13
aa(lp2
I0
aI0
aI0
aI0
aI0
aI0
aI0
aI0
aI0
aI0
aI0
aI0
aI0
aI0
aaI00
a.(lp0
I44
aI2
aI-1
a(lp1
F4296.24
aF4440.06
aF4273.29
aF4274.31
aF4176.39
aF4429.35
aF4431.39
aF3547.05
aF3802.56
aF4072.86
aF3896.4
aF3045.7200000000003
aF3933.63
aF4010.13
aa(lp2
I0
aI0
aI0
aI0
aI0
aI0
aI0
aI0
aI0
aI0
aI0
aI0
aI0
aI0
aaI00
a.(lp0
I45
aI2
aI-1
a(lp1
F4296.24
aF4440.06
aF4273.29
aF4274.31
aF4176.39
aF4429.35
aF4431.39
aF3547.05
aF3802.56
aF4072.86
aF3896.4
aF3045.7200000000003
aF3933.63
aF4010.13
aa(lp2
I0
aI0
aI0
aI0
aI0
aI0
aI0
aI0
aI0
aI0
aI0
aI0
aI0
aI0
aaI00
a.(lp0
I46
aI2
aI-1
a(lp1
F4296.24
aF4440.06
aF4273.29
aF4274.31
aF4176.39
aF4429.35
aF4431.39
aF3547.05
aF3802.56
aF4072.86
aF3896.4
aF3045.7200000000003
aF3933.63
aF4010.13
aa(lp2
I0
aI0
aI0
aI0
aI0
aI0
aI0
aI0
aI0
aI0
aI0
aI0
aI0
aI0
aaI00
a.(lp0
I47
aI2
aI-1
a(lp1
F4301.34
aF4442.61
aF4280.9400000000005
aF4274.82
aF4183.02
aF4432.41
aF4433.43
aF3576.12
aF3837.2400000000002
aF4089.69
aF3914.76
aF3027.87
aF3963.7200000000003
aF4019.31
aa(lp2
I0
aI0
aI0
aI0
aI0
aI0
aI0
aI0
aI0
aI0
aI0
aI0
aI0
aI0
aaI00
a.(lp0
I48
aI2
aI-1
a(lp1
F4301.34
aF4442.61
aF4280.9400000000005
aF4274.82
aF4183.02
aF4432.41
aF4433.43
aF3576.12
aF3837.2400000000002
aF4089.69
aF3914.76
aF3027.87
aF3963.7200000000003
aF4019.31
aa(lp2
I0
aI0
aI0
aI0
aI0
aI0
aI0
aI0
aI0
aI0
aI0
aI0
aI0
aI0
aaI00
a.(lp0
I49
aI2
aI-1
a(lp1
F4301.34
aF4442.61
aF4280.9400000000005
aF4274.82
aF4183.02
aF4432.41
aF4433.43
aF3576.12
aF3837.2400000000002
aF4089.69
aF3914.76
aF3027.87
aF3963.7200000000003
aF4019.31
aa(lp2
I0
aI0
aI0
aI0
aI0
aI0
aI0
aI0
aI0
aI0
aI0
aI0
aI0
aI0
aaI00
a.(lp0
I50
aI2
aI-1
a(lp1
F4301.34
aF4442.61
aF4280.9400000000005
aF4274.82
aF4183.02
aF4432.41
aF4433.43
aF3576.12
aF3837.2400000000002
aF4089.69
aF3914.76
aF3027.87
aF3963.7200000000003
aF4019.31
aa(lp2
I0
aI0
aI0
aI0
aI0
aI0
aI0
aI0
aI0
aI0
aI0
aI0
aI0
aI0
aaI00
a.(lp0
I51
aI2
aI-1
a(lp1
F4301.34
aF4442.61
aF4280.9400000000005
aF4274.82
aF4183.02
aF4432.41
aF4433.43
aF3576.12
aF3837.2400000000002
aF4089.69
aF3914.76
aF3027.87
aF3963.7200000000003
aF4019.31
aa(lp2
I0
aI0
aI0
aI0
aI0
aI0
aI0
aI0
aI0
aI0
aI0
aI0
aI0
aI0
aaI00
a.(lp0
I52
aI2
aI-1
a(lp1
F4301.34
aF4442.61
aF4280.9400000000005
aF4274.82
aF4183.02
aF4432.41
aF4433.43
aF3576.12
aF3837.2400000000002
aF4089.69
aF3914.76
aF3027.87
aF3963.7200000000003
aF4019.31
aa(lp2
I0
aI0
aI0
aI0
aI0
aI0
aI0
aI0
aI0
aI0
aI0
aI0
aI0
aI0
aaI00
a.(lp0
I53
aI2
aI-1
a(lp1
F4301.34
aF4442.61
aF4280.9400000000005
aF4274.82
aF4183.02
aF4432.41
aF4433.43
aF3576.12
aF3837.2400000000002
aF4089.69
aF3914.76
aF3027.87
aF3963.7200000000003
aF4019.31
aa(lp2
I0
aI0
aI0
aI0
aI0
aI0
aI0
aI0
aI0
aI0
aI0
aI0
aI0
aI0
aaI00
a.(lp0
I54
aI2
aI-1
a(lp1
F4301.34
aF4442.61
aF4280.9400000000005
aF4274.82
aF4183.02
aF4432.41
aF4433.43
aF3576.12
aF3837.2400000000002
aF4089.69
aF3914.76
aF3027.87
aF3963.7200000000003
aF4019.31
aa(lp2
I0
aI0
aI0
aI0
aI0
aI0
aI0
aI0
aI0
aI0
aI0
aI0
aI0
aI0
aaI00
a.(lp0
I55
aI2
aI-1
a(lp1
F4303.38
aF4445.16
aF4286.04
aF4276.35
aF4186.59
aF4437.0
aF4431.39
aF3592.9500000000003
aF3866.82
aF4091.73
aF3933.63
aF3026.85
aF3989.2200000000003
aF4032.57
aa(lp2
I0
aI0
aI0
aI0
aI0
aI0
aI0
aI0
aI0
aI0
aI0
aI0
aI0
aI0
aaI00
a.(lp0
I56
aI2
aI-1
a(lp1
F4303.38
aF4445.16
aF4286.04
aF4276.35
aF4186.59
aF4437.0
aF4431.39
aF3592.9500000000003
aF3866.82
aF4091.73
aF3933.63
aF3026.85
aF3989.2200000000003
aF4032.57
aa(lp2
I0
aI0
aI0
aI0
aI0
aI0
aI0
aI0
aI0
aI0
aI0
aI0
aI0
aI0
aaI00
a.(lp0
I57
aI2
aI-1
a(lp1
F4303.38
aF4445.16
aF4286.04
aF4276.35
aF4186.59
aF4437.0
aF4431.39
aF3592.9500000000003
aF3866.82
aF4091.73
aF3933.63
aF3026.85
aF3989.2200000000003
aF4032.57
aa(lp2
I0
aI0
aI0
aI0
aI0
aI0
aI0
aI0
aI0
aI0
aI0
aI0
aI0
aI0
aaI00
a.(lp0
I58
aI2
aI-1
a(lp1
F4303.38
aF4445.16
aF4286.04
aF4276.35
aF4186.59
aF4437.0
aF4431.39
aF3592.9500000000003
aF3866.82
aF4091.73
aF3933.63
aF3026.85
aF3989.2200000000003
aF4032.57
aa(lp2
I0
aI0
aI0
aI0
aI0
aI0
aI0
aI0
aI0
aI0
aI0
aI0
aI0
aI0
aaI00
a.(lp0
I59
aI2
aI-1
a(lp1
F4303.38
aF4445.16
aF4286.04
aF4276.35
aF4186.59
aF4437.0
aF4431.39
aF3592.9500000000003
aF3866.82
aF4091.73
aF3933.63
aF3026.85
aF3989.2200000000003
aF4032.57
aa(lp2
I0
aI0
aI0
aI0
aI0
aI0
aI0
aI0
aI0
aI0
aI0
aI0
aI0
aI0
aaI00
a.(lp0
I60
aI2
aI-1
a(lp1
F4303.38
aF4445.16
aF4286.04
aF4276.35
aF4186.59
aF4437.0
aF4431.39
aF3592.9500000000003
aF3866.82
aF4091.73
aF3933.63
aF3026.85
aF3989.2200000000003
aF4032.57
aa(lp2
I0
aI0
aI0
aI0
aI0
aI0
aI0
aI0
aI0
aI0
aI0
aI0
aI0
aI0
aaI00
a.(lp0
I61
aI2
aI-1
a(lp1
F4303.38
aF4445.16
aF4286.04
aF4276.35
aF4186.59
aF4437.0
aF4431.39
aF3592.9500000000003
aF3866.82
aF4091.73
aF3933.63
aF3026.85
aF3989.2200000000003
aF4032.57
aa(lp2
I0
aI0
aI0
aI0
aI0
aI0
aI0
aI0
aI0
aI0
aI0
aI0
aI0
aI0
aaI00
a.(lp0
I62
aI2
aI-1
a(lp1
F4303.38
aF4445.16
aF4286.04
aF4276.35
aF4186.59
aF4437.0
aF4431.39
aF3592.9500000000003
aF3866.82
aF4091.73
aF3933.63
aF3026.85
aF3989.2200000000003
aF4032.57
aa(lp2
I0
aI0
aI0
aI0
aI0
aI0
aI0
aI0
aI0
aI0
aI0
aI0
aI0
aI0
aaI00
a.(lp0
I63
aI2
aI-1
a(lp1
F4298.28
aF4444.65
aF4279.92
aF4274.82
aF4183.02
aF4433.9400000000005
aF4430.37
aF3575.1
aF3846.9300000000003
aF4079.4900000000002
aF3921.9
aF3029.4
aF3970.35
aF4025.94
aa(lp2
I0
aI0
aI0
aI0
aI0
aI0
aI0
aI0
aI0
aI0
aI0
aI0
aI0
aI0
aaI00
a.(lp0
I64
aI2
aI-1
a(lp1
F4298.28
aF4444.65
aF4279.92
aF4274.82
aF4183.02
aF4433.9400000000005
aF4430.37
aF3575.1
aF3846.9300000000003
aF4079.4900000000002
aF3921.9
aF3029.4
aF3970.35
aF4025.94
aa(lp2
I0
aI0
aI0
aI0
aI0
aI0
aI0
aI0
aI0
aI0
aI0
aI0
aI0
aI0
aaI00
a.(lp0
I65
aI2
aI-1
a(lp1
F4298.28
aF4444.65
aF4279.92
aF4274.82
aF4183.02
aF4433.9400000000005
aF4430.37
aF3575.1
aF3846.9300000000003
aF4079.4900000000002
aF3921.9
aF3029.4
aF3970.35
aF4025.94
aa(lp2
I0
aI0
aI0
aI0
aI0
aI0
aI0
aI0
aI0
aI0
aI0
aI0
aI0
aI0
aaI00
a.(lp0
I66
aI2
aI-1
a(lp1
F4298.28
aF4444.65
aF4279.92
aF4274.82
aF4183.02
aF4433.9400000000005
aF4430.37
aF3575.1
aF3846.9300000000003
aF4079.4900000000002
aF3921.9
aF3029.4
aF3970.35
aF4025.94
aa(lp2
I0
aI0
aI0
aI0
aI0
aI0
aI0
aI0
aI0
aI0
aI0
aI0
aI0
aI0
aaI00
a.(lp0
I67
aI2
aI-1
a(lp1
F4298.28
aF4444.65
aF4279.92
aF4274.82
aF4183.02
aF4433.9400000000005
aF4430.37
aF3575.1
aF3846.9300000000003
aF4079.4900000000002
aF3921.9
aF3029.4
aF3970.35
aF4025.94
aa(lp2
I0
aI0
aI0
aI0
aI0
aI0
aI0
aI0
aI0
aI0
aI0
aI0
aI0
aI0
aaI00
a.(lp0
I68
aI2
aI-1
a(lp1
F4298.28
aF4444.65
aF4279.92
aF4274.82
aF4183.02
aF4433.9400000000005
aF4430.37
aF3575.1
aF3846.9300000000003
aF4079.4900000000002
aF3921.9
aF3029.4
aF3970.35
aF4025.94
aa(lp2
I0
aI0
aI0
aI0
aI0
aI0
aI0
aI0
aI0
aI0
aI0
aI0
aI0
aI0
aaI00
a.(lp0
I69
aI2
aI-1
a(lp1
F4298.28
aF4444.65
aF4279.92
aF4274.82
aF4183.02
aF4433.9400000000005
aF4430.37
aF3575.1
aF3846.9300000000003
aF4079.4900000000002
aF3921.9
aF3029.4
aF3970.35
aF4025.94
aa(lp2
I0
aI0
aI0
aI0
aI0
aI0
aI0
aI0
aI0
aI0
aI0
aI0
aI0
aI0
aaI00
a.(lp0
I70
aI2
aI-1
a(lp1
F4298.28
aF4444.65
aF4279.92
aF4274.82
aF4183.02
aF4433.9400000000005
aF4430.37
aF3575.1
aF3846.9300000000003
aF4079.4900000000002
aF3921.9
aF3029.4
aF3970.35
aF4025.94
aa(lp2
I0
aI0
aI0
aI0
aI0
aI0
aI0
aI0
aI0
aI0
aI0
aI0
aI0
aI0
aaI00
a.(lp0
I71
aI2
aI-1
a(lp1
F4300.32
aF4445.67
aF4276.35
aF4271.76
aF4182.0
aF4428.33
aF4430.37
aF3562.86
aF3825.0
aF4074.9
aF3908.13
aF3037.05
aF3956.07
aF4018.29
aa(lp2
I0
aI0
aI0
aI0
aI0
aI0
aI0
aI0
aI0
aI0
aI0
aI0
aI0
aI0
aaI00
a.(lp0
I72
aI2
aI-1
a(lp1
F4300.32
aF4445.67
aF4276.35
aF4271.76
aF4182.0
aF4428.33
aF4430.37
aF3562.86
aF3825.0
aF4074.9
aF3908.13
aF3037.05
aF3956.07
aF4018.29
aa(lp2
I0
aI0
aI0
aI0
aI0
aI0
aI0
aI0
aI0
aI0
aI0
aI0
aI0
aI0
aaI00
a.(lp0
I73
aI2
aI-1
a(lp1
F4300.32
aF4445.67
aF4276.35
aF4271.76
aF4182.0
aF4428.33
aF4430.37
aF3562.86
aF3825.0
aF4074.9
aF3908.13
aF3037.05
aF3956.07
aF4018.29
aa(lp2
I0
aI0
aI0
aI0
aI0
aI0
aI0
aI0
aI0
aI0
aI0
aI0
aI0
aI0
aaI00
a.(lp0
I74
aI2
aI-1
a(lp1
F4300.32
aF4445.67
aF4276.35
aF4271.76
aF4182.0
aF4428.33
aF4430.37
aF3562.86
aF3825.0
aF4074.9
aF3908.13
aF3037.05
aF3956.07
aF4018.29
aa(lp2
I0
aI0
aI0
aI0
aI0
aI0
aI0
aI0
aI0
aI0
aI0
aI0
aI0
aI0
aaI00
a.(lp0
I75
aI2
aI-1
a(lp1
F4300.32
aF4445.67
aF4276.35
aF4271.76
aF4182.0
aF4428.33
aF4430.37
aF3562.86
aF3825.0
aF4074.9
aF3908.13
aF3037.05
aF3956.07
aF4018.29
aa(lp2
I0
aI0
aI0
aI0
aI0
aI0
aI0
aI0
aI0
aI0
aI0
aI0
aI0
aI0
aaI00
a.(lp0
I76
aI2
aI-1
a(lp1
F4300.32
aF4445.67
aF4276.35
aF4271.76
aF4182.0
aF4428.33
aF4430.37
aF3562.86
aF3825.0
aF4074.9
aF3908.13
aF3037.05
aF3956.07
aF4018.29
aa(lp2
I0
aI0
aI0
aI0
aI0
aI0
aI0
aI0
aI0
aI0
aI0
aI0
aI0
aI0
aaI00
a.(lp0
I77
aI2
aI-1
a(lp1
F4300.32
aF4445.67
aF4276.35
aF4271.76
aF4182.0
aF4428.33
aF4430.37
aF3562.86
aF3825.0
aF4074.9
aF3908.13
aF3037.05
aF3956.07
aF4018.29
aa(lp2
I0
aI0
aI0
aI0
aI0
aI0
aI0
aI0
aI0
aI0
aI0
aI0
aI0
aI0
aaI00
a.(lp0
I78
aI2
aI-1
a(lp1
F4300.32
aF4445.67
aF4276.35
aF4271.76
aF4182.0
aF4428.33
aF4430.37
aF3562.86
aF3825.0
aF4074.9
aF3908.13
aF3037.05
aF3956.07
aF4018.29
aa(lp2
I0
aI0
aI0
aI0
aI0
aI0
aI0
aI0
aI0
aI0
aI0
aI0
aI0
aI0
aaI00
a.(lp0
I79
aI2
aI-1
a(lp1
F4300.83
aF4447.2
aF4280.43
aF4273.29
aF4185.06
aF4433.43
aF4429.35
aF3572.04
aF3838.77
aF4083.06
aF3912.7200000000003
aF3043.17
aF3968.82
aF4019.82
aa(lp2
I0
aI0
aI0
aI0
aI0
aI0
aI0
aI0
aI0
aI0
aI0
aI0
aI0
aI0
aaI00
a.(lp0
I80
aI2
aI-1
a(lp1
F4300.83
aF4447.2
aF4280.43
aF4273.29
aF4185.06
aF4433.43
aF4429.35
aF3572.04
aF3838.77
aF4083.06
aF3912.7200000000003
aF3043.17
aF3968.82
aF4019.82
aa(lp2
I0
aI0
aI0
aI0
aI0
aI0
aI0
aI0
aI0
aI0
aI0
aI0
aI0
aI0
aaI00
a.(lp0
I81
aI2
aI-1
a(lp1
F4300.83
aF4447.2
aF4280.43
aF4273.29
aF4185.06
aF4433.43
aF4429.35
aF3572.04
aF3838.77
aF4083.06
aF3912.7200000000003
aF3043.17
aF3968.82
aF4019.82
aa(lp2
I0
aI0
aI0
aI0
aI0
aI0
aI0
aI0
aI0
aI0
aI0
aI0
aI0
aI0
aaI00
a.(lp0
I82
aI2
aI-1
a(lp1
F4300.83
aF4447.2
aF4280.43
aF4273.29
aF4185.06
aF4433.43
aF4429.35
aF3572.04
aF3838.77
aF4083.06
aF3912.7200000000003
aF3043.17
aF3968.82
aF4019.82
aa(lp2
I0
aI0
aI0
aI0
aI0
aI0
aI0
aI0
aI0
aI0
aI0
aI0
aI0
aI0
aaI00
a.(lp0
I83
aI2
aI-1
a(lp1
F4300.83
aF4447.2
aF4280.43
aF4273.29
aF4185.06
aF4433.43
aF4429.35
aF3572.04
aF3838.77
aF4083.06
aF3912.7200000000003
aF3043.17
aF3968.82
aF4019.82
aa(lp2
I0
aI0
aI0
aI0
aI0
aI0
aI0
aI0
aI0
aI0
aI0
aI0
aI0
aI0
aaI00
a.(lp0
I84
aI2
aI-1
a(lp1
F4300.83
aF4447.2
aF4280.43
aF4273.29
aF4185.06
aF4433.43
aF4429.35
aF3572.04
aF3838.77
aF4083.06
aF3912.7200000000003
aF3043.17
aF3968.82
aF4019.82
aa(lp2
I0
aI0
aI0
aI0
aI0
aI0
aI0
aI0
aI0
aI0
aI0
aI0
aI0
aI0
aaI00
a.(lp0
I85
aI2
aI-1
a(lp1
F4300.83
aF4447.2
aF4280.43
aF4273.29
aF4185.06
aF4433.43
aF4429.35
aF3572.04
aF3838.77
aF4083.06
aF3912.7200000000003
aF3043.17
aF3968.82
aF4019.82
aa(lp2
I0
aI0
aI0
aI0
aI0
aI0
aI0
aI0
aI0
aI0
aI0
aI0
aI0
aI0
aaI00
a.(lp0
I86
aI2
aI-1
a(lp1
F4300.83
aF4447.2
aF4280.43
aF4273.29
aF4185.06
aF4433.43
aF4429.35
aF3572.04
aF3838.77
aF4083.06
aF3912.7200000000003
aF3043.17
aF3968.82
aF4019.82
aa(lp2
I0
aI0
aI0
aI0
aI0
aI0
aI0
aI0
aI0
aI0
aI0
aI0
aI0
aI0
aaI00
a.(lp0
I87
aI2
aI-1
a(lp1
F4299.81
aF4447.71
aF4286.55
aF4276.35
aF4186.08
aF4441.08
aF4428.33
aF3584.79
aF3861.7200000000003
aF4089.69
aF3922.92
aF3050.82
aF3984.12
aF4026.4500000000003
aa(lp2
I0
aI0
aI0
aI0
aI0
aI0
aI0
aI0
aI0
aI0
aI0
aI0
aI0
aI0
aaI00
a.(lp0
I88
aI2
aI-1
a(lp1
F4299.81
aF4447.71
aF4286.55
aF4276.35
aF4186.08
aF4441.08
aF4428.33
aF3584.79
aF3861.7200000000003
aF4089.69
aF3922.92
aF3050.82
aF3984.12
aF4026.4500000000003
aa(lp2
I0
aI0
aI0
aI0
aI0
aI0
aI0
aI0
aI0
aI0
aI0
aI0
aI0
aI0
aaI00
a.(lp0
I89
aI2
aI-1
a(lp1
F4299.81
aF4447.71
aF4286.55
aF4276.35
aF4186.08
aF4441.08
aF4428.33
aF3584.79
aF3861.7200000000003
aF4089.69
aF3922.92
aF3050.82
aF3984.12
aF4026.4500000000003
aa(lp2
I0
aI0
aI0
aI0
aI0
aI0
aI0
aI0
aI0
aI0
aI0
aI0
aI0
aI0
aaI00
a.(lp0
I90
aI2
aI-1
a(lp1
F4299.81
aF4447.71
aF4286.55
aF4276.35
aF4186.08
aF4441.08
aF4428.33
aF3584.79
aF3861.7200000000003
aF4089.69
aF3922.92
aF3050.82
aF3984.12
aF4026.4500000000003
aa(lp2
I0
aI0
aI0
aI0
aI0
aI0
aI0
aI0
aI0
aI0
aI0
aI0
aI0
aI0
aaI00
a.(lp0
I91
aI2
aI-1
a(lp1
F4299.81
aF4447.71
aF4286.55
aF4276.35
aF4186.08
aF4441.08
aF4428.33
aF3584.79
aF3861.7200000000003
aF4089.69
aF3922.92
aF3050.82
aF3984.12
aF4026.4500000000003
aa(lp2
I0
aI0
aI0
aI0
aI0
aI0
aI0
aI0
aI0
aI0
aI0
aI0
aI0
aI0
aaI00
a.(lp0
I92
aI2
aI-1
a(lp1
F4299.81
aF4447.71
aF4286.55
aF4276.35
aF4186.08
aF4441.08
aF4428.33
aF3584.79
aF3861.7200000000003
aF4089.69
aF3922.92
aF3050.82
aF3984.12
aF4026.4500000000003
aa(lp2
I0
aI0
aI0
aI0
aI0
aI0
aI0
aI0
aI0
aI0
aI0
aI0
aI0
aI0
aaI00
a.(lp0
I93
aI2
aI-1
a(lp1
F4299.81
aF4447.71
aF4286.55
aF4276.35
aF4186.08
aF4441.08
aF4428.33
aF3584.79
aF3861.7200000000003
aF4089.69
aF3922.92
aF3050.82
aF3984.12
aF4026.4500000000003
aa(lp2
I0
aI0
aI0
aI0
aI0
aI0
aI0
aI0
aI0
aI0
aI0
aI0
aI0
aI0
aaI00
a.(lp0
I94
aI2
aI-1
a(lp1
F4299.81
aF4447.71
aF4286.55
aF4276.35
aF4186.08
aF4441.08
aF4428.33
aF3584.79
aF3861.7200000000003
aF4089.69
aF3922.92
aF3050.82
aF3984.12
aF4026.4500000000003
aa(lp2
I0
aI0
aI0
aI0
aI0
aI0
aI0
aI0
aI0
aI0
aI0
aI0
aI0
aI0
aaI00
a.(lp0
I95
aI2
aI-1
a(lp1
F4301.34
aF4448.7300000000005
aF4284.0
aF4274.82
aF4185.06
aF4437.51
aF4428.84
aF3584.28
aF3855.09
aF4082.04
aF3921.39
aF3044.7000000000003
aF3980.55
aF4029.51
aa(lp2
I0
aI0
aI0
aI0
aI0
aI0
aI0
aI0
aI0
aI0
aI0
aI0
aI0
aI0
aaI00
a.(lp0
I96
aI2
aI-1
a(lp1
F4301.34
aF4448.7300000000005
aF4284.0
aF4274.82
aF4185.06
aF4437.51
aF4428.84
aF3584.28
aF3855.09
aF4082.04
aF3921.39
aF3044.7000000000003
aF3980.55
aF4029.51
aa(lp2
I0
aI0
aI0
aI0
aI0
aI0
aI0
aI0
aI0
aI0
aI0
aI0
aI0
aI0
aaI00
a.(lp0
I97
aI2
aI-1
a(lp1
F4301.34
aF4448.7300000000005
aF4284.0
aF4274.82
aF4185.06
aF4437.51
aF4428.84
aF3584.28
aF3855.09
aF4082.04
aF3921.39
aF3044.7000000000003
aF3980.55
aF4029.51
aa(lp2
I0
aI0
aI0
aI0
aI0
aI0
aI0
aI0
aI0
aI0
aI0
aI0
aI0
aI0
aaI00
a.(lp0
I98
aI2
aI-1
a(lp1
F4301.34
aF4448.7300000000005
aF4284.0
aF4274.82
aF4185.06
aF4437.51
aF4428.84
aF3584.28
aF3855.09
aF4082.04
aF3921.39
aF3044.7000000000003
aF3980.55
aF4029.51
aa(lp2
I0
aI0
aI0
aI0
aI0
aI0
aI0
aI0
aI0
aI0
aI0
aI0
aI0
aI0
aaI00
a.(lp0
I99
aI2
aI-1
a(lp1
F4301.34
aF4448.7300000000005
aF4284.0
aF4274.82
aF4185.06
aF4437.51
aF4428.84
aF3584.28
aF3855.09
aF4082.04
aF3921.39
aF3044.7000000000003
aF3980.55
aF4029.51
aa(lp2
I0
aI0
aI0
aI0
aI0
aI0
aI0
aI0
aI0
aI0
aI0
aI0
aI0
aI0
aaI00
a.(lp0
I100
aI2
aI-1
a(lp1
F4301.34
aF4448.7300000000005
aF4284.0
aF4274.82
aF4185.06
aF4437.51
aF4428.84
aF3584.28
aF3855.09
aF4082.04
aF3921.39
aF3044.7000000000003
aF3980.55
aF4029.51
aa(lp2
I0
aI0
aI0
aI0
aI0
aI0
aI0
aI0
aI0
aI0
aI0
aI0
aI0
aI0
aaI00
a.(lp0
I101
aI2
aI-1
a(lp1
F4301.34
aF4448.7300000000005
aF4284.0
aF4274.82
aF4185.06
aF4437.51
aF4428.84
aF3584.28
aF3855.09
aF4082.04
aF3921.39
aF3044.7000000000003
aF3980.55
aF4029.51
aa(lp2
I0
aI0
aI0
aI0
aI0
aI0
aI0
aI0
aI0
aI0
aI0
aI0
aI0
aI0
aaI00
a.(lp0
I102
aI2
aI-1
a(lp1
F4301.34
aF4448.7300000000005
aF4284.0
aF4274.82
aF4185.06
aF4437.51
aF4428.84
aF3584.28
aF3855.09
aF4082.04
aF3921.39
aF3044.7000000000003
aF3980.55
aF4029.51
aa(lp2
I0
aI0
aI0
aI0
aI0
aI0
aI0
aI0
aI0
aI0
aI0
aI0
aI0
aI0
aaI00
a.(lp0
I103
aI2
aI-1
a(lp1
F4300.32
aF4448.22
aF4276.35
aF4273.8
aF4184.04
aF4429.86
aF4429.86
aF3568.98
aF3827.55
aF4072.35
aF3910.17
aF3017.67
aF3958.11
aF4020.33
aa(lp2
I0
aI0
aI0
aI0
aI0
aI0
aI0
aI0
aI0
aI0
aI0
aI0
aI0
aI0
aaI00
a.(lp0
I104
aI2
aI-1
a(lp1
F4300.32
aF4448.22
aF4276.35
aF4273.8
aF4184.04
aF4429.86
aF4429.86
aF3568.98
aF3827.55
aF4072.35
aF3910.17
aF3017.67
aF3958.11
aF4020.33
aa(lp2
I0
aI0
aI0
aI0
aI0
aI0
aI0
aI0
aI0
aI0
aI0
aI0
aI0
aI0
aaI00
a.(lp0
I105
aI2
aI-1
a(lp1
F4300.32
aF4448.22
aF4276.35
aF4273.8
aF4184.04
aF4429.86
aF4429.86
aF3568.98
aF3827.55
aF4072.35
aF3910.17
aF3017.67
aF3958.11
aF4020.33
aa(lp2
I0
aI0
aI0
aI0
aI0
aI0
aI0
aI0
aI0
aI0
aI0
aI0
aI0
aI0
aaI00
a.(lp0
I106
aI2
aI-1
a(lp1
F4300.32
aF4448.22
aF4276.35
aF4273.8
aF4184.04
aF4429.86
aF4429.86
aF3568.98
aF3827.55
aF4072.35
aF3910.17
aF3017.67
aF3958.11
aF4020.33
aa(lp2
I0
aI0
aI0
aI0
aI0
aI0
aI0
aI0
aI0
aI0
aI0
aI0
aI0
aI0
aaI00
a.(lp0
I107
aI2
aI-1
a(lp1
F4300.32
aF4448.22
aF4276.35
aF4273.8
aF4184.04
aF4429.86
aF4429.86
aF3568.98
aF3827.55
aF4072.35
aF3910.17
aF3017.67
aF3958.11
aF4020.33
aa(lp2
I0
aI0
aI0
aI0
aI0
aI0
aI0
aI0
aI0
aI0
aI0
aI0
aI0
aI0
aaI00
a.(lp0
I108
aI2
aI-1
a(lp1
F4300.32
aF4448.22
aF4276.35
aF4273.8
aF4184.04
aF4429.86
aF4429.86
aF3568.98
aF3827.55
aF4072.35
aF3910.17
aF3017.67
aF3958.11
aF4020.33
aa(lp2
I0
aI0
aI0
aI0
aI0
aI0
aI0
aI0
aI0
aI0
aI0
aI0
aI0
aI0
aaI00
a.(lp0
I109
aI2
aI-1
a(lp1
F4300.32
aF4448.22
aF4276.35
aF4273.8
aF4184.04
aF4429.86
aF4429.86
aF3568.98
aF3827.55
aF4072.35
aF3910.17
aF3017.67
aF3958.11
aF4020.33
aa(lp2
I0
aI0
aI0
aI0
aI0
aI0
aI0
aI0
aI0
aI0
aI0
aI0
aI0
aI0
aaI00
a.(lp0
I110
aI2
aI-1
a(lp1
F4300.32
aF4448.22
aF4276.35
aF4273.8
aF4184.04
aF4429.86
aF4429.86
aF3568.98
aF3827.55
aF4072.35
aF3910.17
aF3017.67
aF3958.11
aF4020.33
aa(lp2
I0
aI0
aI0
aI0
aI0
aI0
aI0
aI0
aI0
aI0
aI0
aI0
aI0
aI0
aaI00
a.(lp0
I111
aI2
aI-1
a(lp1
F4300.32
aF4445.67
aF4276.35
aF4274.31
aF4183.02
aF4430.88
aF4428.84
aF3563.37
aF3826.02
aF4077.96
aF3905.58
aF3011.55
aF3957.09
aF4017.78
aa(lp2
I0
aI0
aI0
aI0
aI0
aI0
aI0
aI0
aI0
aI0
aI0
aI0
aI0
aI0
aaI00
a.(lp0
I112
aI2
aI-1
a(lp1
F4300.32
aF4445.67
aF4276.35
aF4274.31
aF4183.02
aF4430.88
aF4428.84
aF3563.37
aF3826.02
aF4077.96
aF3905.58
aF3011.55
aF3957.09
aF4017.78
aa(lp2
I0
aI0
aI0
aI0
aI0
aI0
aI0
aI0
aI0
aI0
aI0
aI0
aI0
aI0
aaI00
a.(lp0
I113
aI2
aI-1
a(lp1
F4300.32
aF4445.67
aF4276.35
aF4274.31
aF4183.02
aF4430.88
aF4428.84
aF3563.37
aF3826.02
aF4077.96
aF3905.58
aF3011.55
aF3957.09
aF4017.78
aa(lp2
I0
aI0
aI0
aI0
aI0
aI0
aI0
aI0
aI0
aI0
aI0
aI0
aI0
aI0
aaI00
a.(lp0
I114
aI2
aI-1
a(lp1
F4300.32
aF4446.6900000000005
aF4281.45
aF4273.29
aF4184.04
aF4435.47
aF4429.86
aF3578.16
aF3848.9700000000003
aF4088.67
aF3915.78
aF3040.11
aF3975.96
aF4019.31
aa(lp2
I0
aI0
aI0
aI0
aI0
aI0
aI0
aI0
aI0
aI0
aI0
aI0
aI0
aI0
aaI00
a.(lp0
I115
aI2
aI-1
a(lp1
F4300.83
aF4448.7300000000005
aF4284.51
aF4272.78
aF4187.1
aF4434.96
aF4428.84
aF3591.42
aF3863.25
aF4090.2000000000003
aF3927.51
aF3061.53
aF3986.16
aF4026.4500000000003
aa(lp2
I0
aI0
aI0
aI0
aI0
aI0
aI0
aI0
aI0
aI0
aI0
aI0
aI0
aI0
aaI00
a.(lp0
I116
aI2
aI-1
a(lp1
F4299.81
aF4445.67
aF4281.96
aF4274.82
aF4187.61
aF4432.92
aF4427.82
aF3580.71
aF3851.01
aF4081.53
aF3923.94
aF3039.6
aF3976.4700000000003
aF4030.02
aa(lp2
I0
aI0
aI0
aI0
aI0
aI0
aI0
aI0
aI0
aI0
aI0
aI0
aI0
aI0
aaI00
a.(lp0
I117
aI2
aI-1
a(lp1
F4296.75
aF4443.63
aF4275.33
aF4275.33
aF4180.9800000000005
aF4431.9
aF4429.35
aF3560.31
aF3825.0
aF4072.86
aF3910.17
aF3002.88
aF3950.46
aF4016.25
aa(lp2
I0
aI0
aI0
aI0
aI0
aI0
aI0
aI0
aI0
aI0
aI0
aI0
aI0
aI0
aaI00
a.(lp0
I118
aI2
aI-1
a(lp1
F4300.32
aF4447.2
aF4277.88
aF4274.31
aF4177.41
aF4430.88
aF4427.31
aF3564.9
aF3826.53
aF4080.51
aF3908.64
aF3017.16
aF3956.58
aF4017.78
aa(lp2
I0
aI0
aI0
aI0
aI0
aI0
aI0
aI0
aI0
aI0
aI0
aI0
aI0
aI0
aaI00
a.(lp0
I119
aI2
aI-1
a(lp1
F4301.34
aF4448.22
aF4286.55
aF4277.88
aF4183.02
aF4434.96
aF4427.82
aF3591.42
aF3859.6800000000003
aF4093.26
aF3922.41
aF3060.51
aF3990.75
aF4030.02
aa(lp2
I0
aI0
aI0
aI0
aI0
aI0
aI0
aI0
aI0
aI0
aI0
aI0
aI0
aI0
aaI00
a.(lp0
I120
aI2
aI-1
a(lp1
F4299.81
aF4447.2
aF4288.08
aF4279.92
aF4187.1
aF4439.55
aF4430.88
aF3599.07
aF3871.41
aF4089.69
aF3934.14
aF3086.01
aF3996.36
aF4030.53
aa(lp2
I0
aI0
aI0
aI0
aI0
aI0
aI0
aI0
aI0
aI0
aI0
aI0
aI0
aI0
aaI00
a.(lp0
I121
aI2
aI-1
a(lp1
F4301.34
aF4447.2
aF4277.88
aF4275.84
aF4184.55
aF4437.51
aF4429.35
aF3568.4700000000003
aF3833.67
aF4069.29
aF3920.37
aF3056.43
aF3962.19
aF4024.41
aa(lp2
I0
aI0
aI0
aI0
aI0
aI0
aI0
aI0
aI0
aI0
aI0
aI0
aI0
aI0
aaI00
a.(lp0
I122
aI2
aI-1
a(lp1
F4297.77
aF4441.59
aF4271.76
aF4274.31
aF4180.47
aF4431.9
aF4429.86
aF3544.5
aF3798.9900000000002
aF4063.17
aF3898.44
aF2988.6
aF3934.65
aF4013.19
aa(lp2
I0
aI0
aI0
aI0
aI0
aI0
aI0
aI0
aI0
aI0
aI0
aI0
aI0
aI0
aaI00
a.(lp0
I123
aI2
aI-1
a(lp1
F4298.79
aF4441.59
aF4278.39
aF4276.86
aF4181.49
aF4430.37
aF4429.35
aF3571.02
aF3829.59
aF4084.59
aF3908.64
aF3014.61
aF3966.27
aF4018.8
aa(lp2
I0
aI0
aI0
aI0
aI0
aI0
aI0
aI0
aI0
aI0
aI0
aI0
aI0
aI0
aaI00
a.(lp0
I124
aI2
aI-1
a(lp1
F4301.85
aF4450.26
aF4283.49
aF4276.86
aF4185.06
aF4433.9400000000005
aF4427.82
aF3604.17
aF3877.02
aF4099.38
aF3932.1
aF3095.7000000000003
aF4004.52
aF4032.57
aa(lp2
I0
aI0
aI0
aI0
aI0
aI0
aI0
aI0
aI0
aI0
aI0
aI0
aI0
aI0
aaI00
a.(lp0
I125
aI2
aI-1
a(lp1
F4301.34
aF4449.75
aF4280.9400000000005
aF4275.33
aF4184.55
aF4436.49
aF4428.84
aF3592.9500000000003
aF3866.82
aF4084.59
aF3928.53
aF3060.51
aF3986.67
aF4029.0
aa(lp2
I0
aI0
aI0
aI0
aI0
aI0
aI0
aI0
aI0
aI0
aI0
aI0
aI0
aI0
aaI00
a.(lp0
I126
aI2
aI-1
a(lp1
F4299.81
aF4444.65
aF4277.37
aF4274.31
aF4182.51
aF4431.9
aF4428.84
aF3558.78
aF3823.4700000000003
aF4066.23
aF3907.62
aF2988.6
aF3954.54
aF4020.33
aa(lp2
I0
aI0
aI0
aI0
aI0
aI0
aI0
aI0
aI0
aI0
aI0
aI0
aI0
aI0
aaI00
a.(lp0
I127
aI2
aI-1
a(lp1
F4299.3
aF4441.59
aF4276.35
aF4277.37
aF4181.49
aF4427.31
aF4429.35
aF3554.19
aF3813.27
aF4072.35
aF3902.01
aF3023.79
aF3950.9700000000003
aF4016.76
aa(lp2
I0
aI0
aI0
aI0
aI0
aI0
aI0
aI0
aI0
aI0
aI0
aI0
aI0
aI0
aaI00
a.(lp0
I128
aI2
aI-1
a(lp1
F4303.89
aF4447.2
aF4280.9400000000005
aF4277.88
aF4183.02
aF4430.37
aF4430.37
aF3581.2200000000003
aF3845.4
aF4089.69
aF3918.33
aF3073.77
aF3978.0
aF4023.9
aa(lp2
I0
aI0
aI0
aI0
aI0
aI0
aI0
aI0
aI0
aI0
aI0
aI0
aI0
aI0
aaI00
a.(lp0
I0
aI2
aI-1
a(lp1
F4303.38
aF4451.79
aF4282.47
aF4276.35
aF4184.04
aF4435.47
aF4429.35
aF3588.87
aF3861.21
aF4089.69
aF3927.0
aF3013.08
aF3989.73
aF4029.0
aa(lp2
I0
aI0
aI0
aI0
aI0
aI0
aI0
aI0
aI0
aI0
aI0
aI0
aI0
aI0
aaI00
a.(lp0
I1
aI2
aI-1
a(lp1
F4299.81
aF4444.65
aF4279.41
aF4276.86
aF4180.9800000000005
aF4433.43
aF4428.84
aF3570.0
aF3836.73
aF4076.94
aF3913.7400000000002
aF2981.9700000000003
aF3964.7400000000002
aF4020.33
aa(lp2
I0
aI0
aI0
aI0
aI0
aI0
aI0
aI0
aI0
aI0
aI0
aI0
aI0
aI0
aaI00
a.(lp0
I2
aI2
aI-1
a(lp1
F4301.34
aF4443.12
aF4278.9
aF4274.82
aF4178.9400000000005
aF4431.9
aF4426.29
aF3565.41
aF3825.51
aF4075.92
aF3905.07
aF3067.14
aF3959.13
aF4019.82
aa(lp2
I0
aI0
aI0
aI0
aI0
aI0
aI0
aI0
aI0
aI0
aI0
aI0
aI0
aI0
aaI00
a.(lp0
I3
aI2
aI-1
a(lp1
F4300.32
aF4446.6900000000005
aF4281.96
aF4275.33
aF4180.9800000000005
aF4433.9400000000005
aF4427.31
aF3577.65
aF3843.36
aF4086.63
aF3913.23
aF3111.0
aF3975.96
aF4021.86
aa(lp2
I0
aI0
aI0
aI0
aI0
aI0
aI0
aI0
aI0
aI0
aI0
aI0
aI0
aI0
aaI00
a.(lp0
I4
aI2
aI-1
a(lp1
F4300.83
aF4446.6900000000005
aF4282.9800000000005
aF4275.33
aF4184.04
aF4433.9400000000005
aF4429.35
aF3588.87
aF3859.6800000000003
aF4090.71
aF3923.94
aF3053.37
aF3988.71
aF4027.4700000000003
aa(lp2
I0
aI0
aI0
aI0
aI0
aI0
aI0
aI0
aI0
aI0
aI0
aI0
aI0
aI0
aaI00
a.(lp0
I5
aI2
aI-1
a(lp1
F4303.89
aF4446.6900000000005
aF4279.41
aF4274.31
aF4185.57
aF4431.9
aF4427.82
aF3583.26
aF3856.11
aF4082.04
aF3923.4300000000003
aF2990.13
aF3985.14
aF4032.06
aa(lp2
I0
aI0
aI0
aI0
aI0
aI0
aI0
aI0
aI0
aI0
aI0
aI0
aI0
aI0
aaI00
a.(lp0
I7
aI2
aI-1
a(lp1
F4298.79
aF4445.67
aF4277.37
aF4274.82
aF4180.47
aF4430.88
aF4428.33
aF3562.86
aF3829.08
aF4076.4300000000003
aF3904.56
aF3068.67
aF3959.13
aF4020.33
aa(lp2
I0
aI0
aI0
aI0
aI0
aI0
aI0
aI0
aI0
aI0
aI0
aI0
aI0
aI0
aaI00
a.(lp0
I9
aI2
aI-1
a(lp1
F4302.87
aF4448.22
aF4281.45
aF4273.8
aF4186.59
aF4436.49
aF4430.37
aF3595.5
aF3867.33
aF4092.2400000000002
aF3928.53
aF3083.9700000000003
aF3991.26
aF4029.0
aa(lp2
I0
aI0
aI0
aI0
aI0
aI0
aI0
aI0
aI0
aI0
aI0
aI0
aI0
aI0
aaI00
a.(lp0
I10
aI2
aI-1
a(lp1
F4303.38
aF4445.67
aF4280.9400000000005
aF4275.33
aF4185.57
aF4433.9400000000005
aF4428.33
aF3576.63
aF3843.36
aF4077.96
aF3921.9
aF2984.52
aF3974.4300000000003
aF4027.4700000000003
aa(lp2
I0
aI0
aI0
aI0
aI0
aI0
aI0
aI0
aI0
aI0
aI0
aI0
aI0
aI0
aaI00
a.(lp0
I12
aI2
aI-1
a(lp1
F4301.85
aF4442.1
aF4277.37
aF4273.8
aF4182.0
aF4433.9400000000005
aF4430.88
aF3565.41
aF3827.04
aF4081.53
aF3904.05
aF3060.51
aF3962.7000000000003
aF4019.82
aa(lp2
I0
aI0
aI0
aI0
aI0
aI0
aI0
aI0
aI0
aI0
aI0
aI0
aI0
aI0
aaI00
a.(lp0
I13
aI2
aI-1
a(lp1
F4302.87
aF4446.6900000000005
aF4281.45
aF4274.82
aF4187.1
aF4435.9800000000005
aF4430.88
aF3594.9900000000002
aF3869.88
aF4096.83
aF3920.37
aF3142.11
aF3996.36
aF4031.04
aa(lp2
I0
aI0
aI0
aI0
aI0
aI0
aI0
aI0
aI0
aI0
aI0
aI0
aI0
aI0
aaI00
a.(lp0
I15
aI2
aI-1
a(lp1
F4303.89
aF4445.16
aF4279.41
aF4272.78
aF4179.45
aF4431.9
aF4428.84
aF3562.86
aF3825.51
aF4069.8
aF3915.27
aF2996.76
aF3958.11
aF4024.41
aa(lp2
I0
aI0
aI0
aI0
aI0
aI0
aI0
aI0
aI0
aI0
aI0
aI0
aI0
aI0
aaI00
a.(lp0
I17
aI2
aI-1
a(lp1
F4299.3
aF4446.18
aF4277.37
aF4276.35
aF4180.9800000000005
aF4430.37
aF4428.84
aF3573.06
aF3838.26
aF4087.65
aF3907.11
aF3055.41
aF3967.8
aF4020.84
aa(lp2
I0
aI0
aI0
aI0
aI0
aI0
aI0
aI0
aI0
aI0
aI0
aI0
aI0
aI0
aaI00
a.(lp0
I18
aI2
aI-1
a(lp1
F4303.89
aF4449.75
aF4283.49
aF4275.84
aF4185.06
aF4434.45
aF4430.88
aF3599.07
aF3873.4500000000003
aF4095.3
aF3929.04
aF3061.53
aF4005.54
aF4033.08
aa(lp2
I0
aI0
aI0
aI0
aI0
aI0
aI0
aI0
aI0
aI0
aI0
aI0
aI0
aI0
aaI00
a.(lp0
I20
aI2
aI-1
a(lp1
F4302.87
aF4444.14
aF4278.9
aF4273.29
aF4181.49
aF4431.9
aF4426.29
aF3562.86
aF3822.96
aF4068.78
aF3907.11
aF3048.78
aF3955.05
aF4022.88
aa(lp2
I0
aI0
aI0
aI0
aI0
aI0
aI0
aI0
aI0
aI0
aI0
aI0
aI0
aI0
aaI00
a.(lp0
I22
aI2
aI-1
a(lp1
F4301.34
aF4449.24
aF4276.86
aF4274.82
aF4186.08
aF4435.47
aF4433.43
aF3588.87
aF3858.66
aF4087.65
aF3917.31
aF3061.02
aF3985.65
aF4026.96
aa(lp2
I0
aI0
aI0
aI0
aI0
aI0
aI0
aI0
aI0
aI0
aI0
aI0
aI0
aI0
aaI00
a.(lp0
I23
aI2
aI-1
a(lp1
F4303.38
aF4448.7300000000005
aF4280.9400000000005
aF4273.29
aF4186.59
aF4438.53
aF4427.82
aF3586.83
aF3858.66
aF4088.16
aF3921.9
aF3004.92
aF3986.67
aF4032.06
aa(lp2
I0
aI0
aI0
aI0
aI0
aI0
aI0
aI0
aI0
aI0
aI0
aI0
aI0
aI0
aaI00
a.(lp0
I25
aI2
aI-1
a(lp1
F4302.36
aF4442.1
aF4275.33
aF4274.31
aF4178.9400000000005
aF4429.86
aF4428.33
aF3565.41
aF3825.51
aF4075.92
aF3906.6
aF3066.12
aF3959.64
aF4021.86
aa(lp2
I0
aI0
aI0
aI0
aI0
aI0
aI0
aI0
aI0
aI0
aI0
aI0
aI0
aI0
aaI00
a.(lp0
I27
aI2
aI-1
a(lp1
F4304.4
aF4445.67
aF4284.51
aF4276.35
aF4185.57
aF4432.41
aF4429.86
aF3590.91
aF3863.76
aF4092.75
aF3920.37
aF3060.51
aF3985.65
aF4027.4700000000003
aa(lp2
I0
aI0
aI0
aI0
aI0
aI0
aI0
aI0
aI0
aI0
aI0
aI0
aI0
aI0
aaI00
a.(lp0
I28
aI2
aI-1
a(lp1
F4304.91
aF4446.18
aF4281.96
aF4274.31
aF4184.55
aF4430.88
aF4427.82
aF3585.81
aF3856.11
aF4082.04
aF3920.37
aF3043.68
aF3984.63
aF4028.4900000000002
aa(lp2
I0
aI0
aI0
aI0
aI0
aI0
aI0
aI0
aI0
aI0
aI0
aI0
aI0
aI0
aaI00
a.(lp0
I30
aI2
aI-1
a(lp1
F4302.87
aF4444.14
aF4278.39
aF4274.82
aF4180.9800000000005
aF4432.92
aF4430.37
aF3565.92
aF3828.06
aF4077.96
aF3904.05
aF3041.13
aF3961.6800000000003
aF4024.92
aa(lp2
I0
aI0
aI0
aI0
aI0
aI0
aI0
aI0
aI0
aI0
aI0
aI0
aI0
aI0
aaI00
a.(lp0
I31
aI2
aI-1
a(lp1
F4304.4
aF4448.22
aF4281.96
aF4275.33
aF4184.04
aF4435.47
aF4430.37
aF3584.79
aF3852.54
aF4088.16
aF3915.27
aF3078.87
aF3984.63
aF4031.04
aa(lp2
I0
aI0
aI0
aI0
aI0
aI0
aI0
aI0
aI0
aI0
aI0
aI0
aI0
aI0
aaI00
a.(lp0
I33
aI2
aI-1
a(lp1
F4301.85
aF4446.18
aF4283.49
aF4272.78
aF4184.04
aF4434.45
aF4428.84
aF3573.57
aF3844.89
aF4072.86
aF3919.86
aF3043.68
aF3973.92
aF4028.4900000000002
aa(lp2
I0
aI0
aI0
aI0
aI0
aI0
aI0
aI0
aI0
aI0
aI0
aI0
aI0
aI0
aaI00
a.(lp0
I34
aI2
aI-1
a(lp1
F4300.83
aF4439.55
aF4273.29
aF4274.82
aF4180.47
aF4429.86
aF4426.8
aF3551.13
aF3807.66
aF4063.6800000000003
aF3901.5
aF2985.03
aF3943.83
aF4016.76
aa(lp2
I0
aI0
aI0
aI0
aI0
aI0
aI0
aI0
aI0
aI0
aI0
aI0
aI0
aI0
aaI00
a.(lp0
I36
aI2
aI-1
a(lp1
F4304.91
aF4447.2
aF4286.04
aF4273.8
aF4182.51
aF4435.9800000000005
aF4428.84
aF3601.11
aF3873.96
aF4098.36
aF3927.0
aF3106.41
aF4001.9700000000003
aF4029.0
aa(lp2
I0
aI0
aI0
aI0
aI0
aI0
aI0
aI0
aI0
aI0
aI0
aI0
aI0
aI0
aaI00
a.(lp0
I38
aI2
aI-1
a(lp1
F4300.83
aF4442.61
aF4277.37
aF4273.29
aF4180.47
aF4437.0
aF4426.29
aF3563.37
aF3828.06
aF4067.76
aF3909.66
aF3044.19
aF3954.54
aF4023.39
aa(lp2
I0
aI0
aI0
aI0
aI0
aI0
aI0
aI0
aI0
aI0
aI0
aI0
aI0
aI0
aaI00
a.(lp0
I40
aI2
aI-1
a(lp1
F4303.38
aF4444.65
aF4278.39
aF4275.33
aF4178.9400000000005
aF4432.41
aF4431.39
aF3575.61
aF3841.32
aF4090.2000000000003
aF3912.7200000000003
aF3046.23
aF3975.4500000000003
aF4024.92
aa(lp2
I0
aI0
aI0
aI0
aI0
aI0
aI0
aI0
aI0
aI0
aI0
aI0
aI0
aI0
aaI00
a.(lp0
I41
aI2
aI-1
a(lp1
F4305.93
aF4450.77
aF4282.9800000000005
aF4275.33
aF4186.08
aF4435.9800000000005
aF4428.33
aF3596.01
aF3874.98
aF4098.87
aF3929.55
aF3032.46
aF4002.48
aF4033.59
aa(lp2
I0
aI0
aI0
aI0
aI0
aI0
aI0
aI0
aI0
aI0
aI0
aI0
aI0
aI0
aaI00
a.(lp0
I43
aI2
aI-1
a(lp1
F4301.85
aF4441.59
aF4278.9
aF4272.27
aF4180.47
aF4431.9
aF4428.33
aF3566.43
aF3828.06
aF4075.41
aF3905.07
aF3036.54
aF3956.58
aF4018.29
aa(lp2
I0
aI0
aI0
aI0
aI0
aI0
aI0
aI0
aI0
aI0
aI0
aI0
aI0
aI0
aaI00
a.(lp0
I44
aI2
aI-1
a(lp1
F4300.83
aF4445.16
aF4278.39
aF4272.78
aF4180.9800000000005
aF4431.39
aF4428.33
aF3572.04
aF3840.3
aF4082.04
aF3907.62
aF3050.31
aF3968.31
aF4019.82
aa(lp2
I0
aI0
aI0
aI0
aI0
aI0
aI0
aI0
aI0
aI0
aI0
aI0
aI0
aI0
aaI00
a.(lp0
I46
aI2
aI-1
a(lp1
F4307.46
aF4443.63
aF4280.9400000000005
aF4272.78
aF4182.51
aF4435.47
aF4428.84
aF3585.81
aF3856.62
aF4083.57
aF3925.4700000000003
aF3041.13
aF3983.61
aF4033.08
aa(lp2
I0
aI0
aI0
aI0
aI0
aI0
aI0
aI0
aI0
aI0
aI0
aI0
aI0
aI0
aaI00
a.(lp0
I48
aI2
aI-1
a(lp1
F4300.83
aF4444.14
aF4278.9
aF4274.31
aF4179.45
aF4430.37
aF4430.88
aF3565.41
aF3829.59
aF4077.4500000000003
aF3905.58
aF3041.64
aF3960.15
aF4018.8
aa(lp2
I0
aI0
aI0
aI0
aI0
aI0
aI0
aI0
aI0
aI0
aI0
aI0
aI0
aI0
aaI00
a.(lp0
I49
aI2
aI-1
a(lp1
F4304.4
aF4445.67
aF4279.92
aF4272.27
aF4180.9800000000005
aF4433.9400000000005
aF4429.35
aF3578.67
aF3847.44
aF4086.63
aF3918.33
aF3086.01
aF3981.06
aF4023.39
aa(lp2
I0
aI0
aI0
aI0
aI0
aI0
aI0
aI0
aI0
aI0
aI0
aI0
aI0
aI0
aaI00
a.(lp0
I40
aI2
aI-1
a(lp1
F4308.99
aF4444.65
aF4287.57
aF4276.35
aF4186.08
aF4436.49
aF4428.33
aF3599.58
aF3874.98
aF4093.26
aF3933.12
aF3089.58
aF4006.05
aF4034.1
aa(lp2
I0
aI0
aI0
aI0
aI0
aI0
aI0
aI0
aI0
aI0
aI0
aI0
aI0
aI0
aaI00
a.(lp0
I78
aI2
aI-1
a(lp1
F4305.93
aF4441.59
aF4285.53
aF4273.29
aF4180.9800000000005
aF4432.41
aF4429.86
aF3579.18
aF3853.05
aF4076.4300000000003
aF3927.0
aF3029.4
aF3984.12
aF4035.12
aa(lp2
I0
aI0
aI0
aI0
aI0
aI0
aI0
aI0
aI0
aI0
aI0
aI0
aI0
aI0
aaI00
a.(lp0
I119
aI2
aI-1
a(lp1
F4304.4
aF4438.53
aF4284.51
aF4273.8
aF4184.55
aF4431.39
aF4430.37
aF3587.85
aF3859.6800000000003
aF4085.1
aF3927.0
aF3030.93
aF3988.71
aF4034.61
aa(lp2
I0
aI0
aI0
aI0
aI0
aI0
aI0
aI0
aI0
aI0
aI0
aI0
aI0
aI0
aaI00
a.(lp0
I33
aI2
aI-1
a(lp1
F4302.87
aF4437.0
aF4276.35
aF4275.84
aF4178.9400000000005
aF4430.37
aF4430.88
aF3580.2000000000003
aF3842.85
aF4089.1800000000003
aF3906.09
aF3077.34
aF3969.33
aF4024.92
aa(lp2
I0
aI0
aI0
aI0
aI0
aI0
aI0
aI0
aI0
aI0
aI0
aI0
aI0
aI0
aaI00
a.(lp0
I79
aI2
aI-1
a(lp1
F4301.34
aF4439.04
aF4278.39
aF4273.8
aF4178.9400000000005
aF4430.88
aF4426.29
aF3591.93
aF3847.44
aF4090.71
aF3905.07
aF3048.27
aF3971.88
aF4024.92
aa(lp2
I0
aI0
aI0
aI0
aI0
aI0
aI0
aI0
aI0
aI0
aI0
aI0
aI0
aI0
aaI00
a.(lp0
I125
aI2
aI-1
a(lp1
F4303.89
aF4440.06
aF4277.88
aF4276.86
aF4179.45
aF4431.39
aF4429.35
aF3598.05
aF3855.6
aF4097.85
aF3908.13
aF3090.09
aF3982.59
aF4029.0
aa(lp2
I0
aI0
aI0
aI0
aI0
aI0
aI0
aI0
aI0
aI0
aI0
aI0
aI0
aI0
aaI00
a.(lp0
I44
aI2
aI-1
a(lp1
F4304.91
aF4441.59
aF4279.41
aF4274.82
aF4182.51
aF4432.41
aF4429.35
aF3601.11
aF3866.82
aF4091.73
aF3921.39
aF3082.44
aF3986.16
aF4029.51
aa(lp2
I0
aI0
aI0
aI0
aI0
aI0
aI0
aI0
aI0
aI0
aI0
aI0
aI0
aI0
aaI00
a.(lp0
I93
aI2
aI-1
a(lp1
F4308.99
aF4445.16
aF4280.9400000000005
aF4273.29
aF4183.53
aF4434.45
aF4427.31
aF3613.86
aF3884.16
aF4101.93
aF3929.55
aF3133.9500000000003
aF4001.46
aF4034.1
aa(lp2
I0
aI0
aI0
aI0
aI0
aI0
aI0
aI0
aI0
aI0
aI0
aI0
aI0
aI0
aaI00
a.(lp0
I15
aI2
aI-1
a(lp1
F4310.52
aF4443.63
aF4281.45
aF4272.27
aF4186.08
aF4437.51
aF4429.35
aF3618.96
aF3887.73
aF4097.85
aF3935.16
aF3153.84
aF4009.62
aF4037.67
aa(lp2
I0
aI0
aI0
aI0
aI0
aI0
aI0
aI0
aI0
aI0
aI0
aI0
aI0
aI0
aaI00
a.(lp0
I67
aI2
aI-1
a(lp1
F4313.07
aF4442.61
aF4274.82
aF4271.76
aF4182.51
aF4432.92
aF4428.33
aF3591.42
aF3848.46
aF4081.53
aF3919.35
aF3128.85
aF3975.96
aF4030.02
aa(lp2
I0
aI0
aI0
aI0
aI0
aI0
aI0
aI0
aI0
aI0
aI0
aI0
aI0
aI0
aaI00
a.(lp0
I121
aI2
aI-1
a(lp1
F4313.07
aF4448.22
aF4281.45
aF4273.29
aF4185.57
aF4433.43
aF4424.76
aF3610.8
aF3886.2000000000003
aF4094.28
aF3944.85
aF3064.59
aF4007.58
aF4046.85
aa(lp2
I0
aI0
aI0
aI0
aI0
aI0
aI0
aI0
aI0
aI0
aI0
aI0
aI0
aI0
aaI00
a.(lp0
I48
aI2
aI-1
a(lp1
F4312.05
aF4444.65
aF4273.8
aF4269.72
aF4182.51
aF4430.88
aF4427.82
aF3594.48
aF3855.09
aF4083.06
aF3923.94
aF3162.0
aF3983.61
aF4034.61
aa(lp2
I0
aI0
aI0
aI0
aI0
aI0
aI0
aI0
aI0
aI0
aI0
aI0
aI0
aI0
aaI00
a.(lp0
I106
aI2
aI-1
a(lp1
F4314.09
aF4450.26
aF4278.9
aF4269.21
aF4186.59
aF4433.9400000000005
aF4430.88
aF3618.4500000000003
aF3891.81
aF4100.4
aF3940.77
aF3127.32
aF4009.11
aF4038.69
aa(lp2
I0
aI0
aI0
aI0
aI0
aI0
aI0
aI0
aI0
aI0
aI0
aI0
aI0
aI0
aaI00
a.(lp0
I38
aI2
aI-1
a(lp1
F4312.56
aF4448.7300000000005
aF4272.27
aF4269.21
aF4181.49
aF4431.39
aF4426.8
aF3595.5
aF3862.23
aF4084.59
aF3929.55
aF3134.46
aF3988.71
aF4034.1
aa(lp2
I0
aI0
aI0
aI0
aI0
aI0
aI0
aI0
aI0
aI0
aI0
aI0
aI0
aI0
aaI00
a.(lp0
I99
aI2
aI-1
a(lp1
F4313.58
aF4450.77
aF4277.37
aF4268.1900000000005
aF4182.51
aF4434.96
aF4425.78
aF3612.33
aF3875.4900000000002
aF4100.4
aF3929.55
aF3166.08
aF3998.91
aF4029.51
aa(lp2
I0
aI0
aI0
aI0
aI0
aI0
aI0
aI0
aI0
aI0
aI0
aI0
aI0
aI0
aaI00
a.(lp0
I33
aI2
aI-1
a(lp1
F4314.6
aF4454.34
aF4269.72
aF4263.6
aF4180.47
aF4431.39
aF4427.31
aF3598.05
aF3858.66
aF4090.2000000000003
aF3922.92
aF3170.67
aF3981.57
aF4032.06
aa(lp2
I0
aI0
aI0
aI0
aI0
aI0
aI0
aI0
aI0
aI0
aI0
aI0
aI0
aI0
aaI00
a.(lp0
I42
aI2
aI-1
a(lp1
F4309.5
aF4456.89
aF4269.72
aF4262.07
aF4179.45
aF4431.9
aF4427.82
aF3603.66
aF3867.84
aF4093.26
aF3928.53
aF3140.07
aF3991.77
aF4037.16
aa(lp2
I0
aI0
aI0
aI0
aI0
aI0
aI0
aI0
aI0
aI0
aI0
aI0
aI0
aI0
aaI00
a.(lp0
I46
aI2
aI-1
a(lp1
F4314.6
aF4458.93
aF4268.7
aF4263.6
aF4180.47
aF4429.86
aF4425.78
aF3604.68
aF3863.25
aF4092.75
aF3927.0
aF3094.68
aF3988.2000000000003
aF4035.63
aa(lp2
I0
aI0
aI0
aI0
aI0
aI0
aI0
aI0
aI0
aI0
aI0
aI0
aI0
aI0
aaI00
a.(lp0
I51
aI2
aI-1
a(lp1
F4313.07
aF4455.87
aF4269.21
aF4262.07
aF4180.47
aF4432.41
aF4423.2300000000005
aF3602.13
aF3863.25
aF4093.26
aF3924.4500000000003
aF3190.05
aF3985.65
aF4033.59
aa(lp2
I0
aI0
aI0
aI0
aI0
aI0
aI0
aI0
aI0
aI0
aI0
aI0
aI0
aI0
aaI00
a.(lp0
I55
aI2
aI-1
a(lp1
F4313.07
aF4460.46
aF4272.27
aF4266.15
aF4182.0
aF4434.96
aF4426.29
aF3609.27
aF3880.59
aF4095.81
aF3938.73
aF3128.34
aF3995.85
aF4037.67
aa(lp2
I0
aI0
aI0
aI0
aI0
aI0
aI0
aI0
aI0
aI0
aI0
aI0
aI0
aI0
aaI00
a.(lp0
I59
aI2
aI-1
a(lp1
F4313.07
aF4463.01
aF4274.82
aF4264.62
aF4181.49
aF4433.9400000000005
aF4426.29
aF3624.57
aF3898.9500000000003
aF4105.5
aF3945.87
aF3097.7400000000002
aF4017.78
aF4044.81
aa(lp2
I0
aI0
aI0
aI0
aI0
aI0
aI0
aI0
aI0
aI0
aI0
aI0
aI0
aI0
aaI00
a.(lp0
I106
aI2
aI-1
a(lp1
F4312.05
aF4457.4
aF4271.25
aF4267.68
aF4183.02
aF4432.92
aF4424.76
aF3608.25
aF3871.92
aF4095.3
aF3934.65
aF3185.46
aF3997.38
aF4040.73
aa(lp2
I0
aI0
aI0
aI0
aI0
aI0
aI0
aI0
aI0
aI0
aI0
aI0
aI0
aI0
aaI00
a.(lp0
I110
aI2
aI-1
a(lp1
F4313.58
aF4459.95
aF4273.29
aF4263.09
aF4179.96
aF4432.92
aF4426.8
aF3605.7000000000003
aF3872.4300000000003
aF4092.75
aF3928.53
aF3148.7400000000002
aF3997.38
aF4037.67
aa(lp2
I0
aI0
aI0
aI0
aI0
aI0
aI0
aI0
aI0
aI0
aI0
aI0
aI0
aI0
aaI00
a.(lp0
I114
aI2
aI-1
a(lp1
F4307.97
aF4463.52
aF4271.25
aF4263.6
aF4183.53
aF4432.92
aF4425.27
aF3607.7400000000002
aF3877.02
aF4094.28
aF3937.2000000000003
aF3134.9700000000003
aF3996.87
aF4039.2000000000003
aa(lp2
I0
aI0
aI0
aI0
aI0
aI0
aI0
aI0
aI0
aI0
aI0
aI0
aI0
aI0
aaI00
a.(lp0
I118
aI2
aI-1
a(lp1
F4314.09
aF4465.56
aF4273.8
aF4266.15
aF4186.59
aF4434.45
aF4426.29
aF3631.2000000000003
aF3908.13
aF4106.01
aF3952.5
aF3119.67
aF4028.4900000000002
aF4053.9900000000002
aa(lp2
I0
aI0
aI0
aI0
aI0
aI0
aI0
aI0
aI0
aI0
aI0
aI0
aI0
aI0
aaI00
a.(lp0
I123
aI2
aI-1
a(lp1
F4313.07
aF4465.56
aF4275.33
aF4263.6
aF4184.55
aF4434.45
aF4427.31
aF3629.16
aF3903.03
aF4104.4800000000005
aF3950.46
aF3143.13
aF4026.4500000000003
aF4047.36
aa(lp2
I0
aI0
aI0
aI0
aI0
aI0
aI0
aI0
aI0
aI0
aI0
aI0
aI0
aI0
aaI00
a.(lp0
I128
aI2
aI-1
a(lp1
F4311.03
aF4463.52
aF4273.8
aF4263.6
aF4181.49
aF4431.9
aF4425.78
aF3614.88
aF3884.16
aF4093.26
aF3937.2000000000003
aF3106.92
aF4007.07
aF4040.2200000000003
aa(lp2
I0
aI0
aI0
aI0
aI0
aI0
aI0
aI0
aI0
aI0
aI0
aI0
aI0
aI0
aaI00
a.(lp0
I3
aI2
aI-1
a(lp1
F4310.52
aF4461.99
aF4271.76
aF4263.6
aF4182.0
aF4431.9
aF4426.8
aF3615.39
aF3883.65
aF4095.3
aF3933.63
aF3144.15
aF4002.9900000000002
aF4039.71
aa(lp2
I0
aI0
aI0
aI0
aI0
aI0
aI0
aI0
aI0
aI0
aI0
aI0
aI0
aI0
aaI00
a.(lp0
I7
aI2
aI-1
a(lp1
F4311.54
aF4464.54
aF4277.37
aF4260.54
aF4185.06
aF4433.43
aF4424.25
aF3630.18
aF3906.09
aF4103.97
aF3949.44
aF3178.32
aF4025.94
aF4049.4
aa(lp2
I0
aI0
aI0
aI0
aI0
aI0
aI0
aI0
aI0
aI0
aI0
aI0
aI0
aI0
aaI00
a.(lp0
I55
aI2
aI-1
a(lp1
F4307.97
aF4465.56
aF4268.7
aF4263.09
aF4179.96
aF4430.88
aF4424.25
aF3604.17
aF3866.31
aF4088.67
aF3924.4500000000003
aF3226.77
aF3990.75
aF4037.67
aa(lp2
I0
aI0
aI0
aI0
aI0
aI0
aI0
aI0
aI0
aI0
aI0
aI0
aI0
aI0
aaI00
a.(lp0
I59
aI2
aI-1
a(lp1
F4308.4800000000005
aF4466.07
aF4270.2300000000005
aF4266.15
aF4185.06
aF4430.37
aF4425.27
aF3612.33
aF3881.61
aF4092.2400000000002
aF3937.2000000000003
aF3120.18
aF4000.44
aF4042.77
aa(lp2
I0
aI0
aI0
aI0
aI0
aI0
aI0
aI0
aI0
aI0
aI0
aI0
aI0
aI0
aaI00
a.(lp0
I63
aI2
aI-1
a(lp1
F4308.4800000000005
aF4470.66
aF4270.2300000000005
aF4264.11
aF4187.1
aF4430.88
aF4426.8
aF3617.43
aF3889.26
aF4099.38
aF3937.71
aF3075.3
aF4011.15
aF4040.2200000000003
aa(lp2
I0
aI0
aI0
aI0
aI0
aI0
aI0
aI0
aI0
aI0
aI0
aI0
aI0
aI0
aaI00
a.(lp0
I67
aI2
aI-1
a(lp1
F4306.4400000000005
aF4469.64
aF4271.76
aF4264.11
aF4183.53
aF4434.45
aF4425.78
aF3620.4900000000002
aF3886.71
aF4098.87
aF3935.16
aF3143.13
aF4006.05
aF4037.67
aa(lp2
I0
aI0
aI0
aI0
aI0
aI0
aI0
aI0
aI0
aI0
aI0
aI0
aI0
aI0
aaI00
a.(lp0
I71
aI2
aI-1
a(lp1
F4309.5
aF4468.62
aF4272.27
aF4261.56
aF4184.55
aF4437.0
aF4422.21
aF3630.69
aF3908.64
aF4110.09
aF3947.4
aF3169.14
aF4025.4300000000003
aF4049.4
aa(lp2
I0
aI0
aI0
aI0
aI0
aI0
aI0
aI0
aI0
aI0
aI0
aI0
aI0
aI0
aaI00
a.(lp0
I76
aI2
aI-1
a(lp1
F4310.52
aF4472.7
aF4274.82
aF4267.17
aF4186.08
aF4434.96
aF4424.76
aF3635.28
aF3912.7200000000003
aF4108.56
aF3950.46
aF3079.89
aF4031.55
aF4053.48
aa(lp2
I0
aI0
aI0
aI0
aI0
aI0
aI0
aI0
aI0
aI0
aI0
aI0
aI0
aI0
aaI00
a.(lp0
I80
aI2
aI-1
a(lp1
F4309.5
aF4468.62
aF4270.2300000000005
aF4264.11
aF4185.57
aF4435.47
aF4421.7
aF3631.2000000000003
aF3905.07
aF4109.07
aF3946.38
aF3168.63
aF4027.4700000000003
aF4045.83
aa(lp2
I0
aI0
aI0
aI0
aI0
aI0
aI0
aI0
aI0
aI0
aI0
aI0
aI0
aI0
aaI00
a.(lp0
I84
aI2
aI-1
a(lp1
F4311.54
aF4468.11
aF4268.7
aF4267.68
aF4184.55
aF4433.43
aF4424.76
aF3624.06
aF3894.87
aF4107.03
aF3938.73
aF3284.4
aF4014.21
aF4042.77
aa(lp2
I0
aI0
aI0
aI0
aI0
aI0
aI0
aI0
aI0
aI0
aI0
aI0
aI0
aI0
aaI00
a.(lp0
I5
aI2
aI-1
a(lp1
F4315.11
aF4469.64
aF4272.27
aF4263.6
aF4182.51
aF4433.43
aF4427.31
aF3628.14
aF3904.56
aF4107.54
aF3948.42
aF3200.76
aF4025.4300000000003
aF4046.34
aa(lp2
I0
aI0
aI0
aI0
aI0
aI0
aI0
aI0
aI0
aI0
aI0
aI0
aI0
aI0
aaI00
a.(lp0
I9
aI2
aI-1
a(lp1
F4312.05
aF4469.13
aF4267.68
aF4263.6
aF4182.0
aF4433.43
aF4422.72
aF3609.27
aF3874.98
aF4098.36
aF3932.61
aF3232.89
aF4000.9500000000003
aF4035.12
aa(lp2
I0
aI0
aI0
aI0
aI0
aI0
aI0
aI0
aI0
aI0
aI0
aI0
aI0
aI0
aaI00
a.(lp0
I13
aI2
aI-1
a(lp1
F4310.01
aF4465.56
aF4264.62
aF4263.09
aF4180.47
aF4432.41
aF4425.27
aF3600.09
aF3865.8
aF4090.71
aF3930.06
aF3241.05
aF3987.1800000000003
aF4038.1800000000003
aa(lp2
I0
aI0
aI0
aI0
aI0
aI0
aI0
aI0
aI0
aI0
aI0
aI0
aI0
aI0
aaI00
a.(lp0
I18
aI2
aI-1
a(lp1
F4311.54
aF4467.6
aF4268.1900000000005
aF4264.62
aF4179.96
aF4432.41
aF4425.27
aF3610.29
aF3871.92
aF4094.28
aF3933.63
aF3272.16
aF3996.87
aF4041.75
aa(lp2
I0
aI0
aI0
aI0
aI0
aI0
aI0
aI0
aI0
aI0
aI0
aI0
aI0
aI0
aaI00
a.(lp0
I22
aI2
aI-1
a(lp1
F4308.99
aF4469.13
aF4269.72
aF4263.6
aF4181.49
aF4434.45
aF4424.76
aF3613.86
aF3884.67
aF4094.28
aF3940.77
aF3218.61
aF4010.64
aF4042.26
aa(lp2
I0
aI0
aI0
aI0
aI0
aI0
aI0
aI0
aI0
aI0
aI0
aI0
aI0
aI0
aaI00
a.(lp0
I26
aI2
aI-1
a(lp1
F4310.52
aF4468.11
aF4268.7
aF4262.07
aF4182.51
aF4436.49
aF4426.8
aF3605.19
aF3867.84
aF4088.16
aF3933.12
aF3150.27
aF3996.87
aF4037.67
aa(lp2
I0
aI0
aI0
aI0
aI0
aI0
aI0
aI0
aI0
aI0
aI0
aI0
aI0
aI0
aaI00
a.(lp0
I31
aI2
aI-1
a(lp1
F4312.05
aF4468.62
aF4267.68
aF4261.05
aF4178.43
aF4431.39
aF4425.78
aF3601.62
aF3862.23
aF4089.1800000000003
aF3931.08
aF3232.89
aF3992.28
aF4034.1
aa(lp2
I0
aI0
aI0
aI0
aI0
aI0
aI0
aI0
aI0
aI0
aI0
aI0
aI0
aI0
aaI00
a.(lp0
I35
aI2
aI-1
a(lp1
F4312.05
aF4471.68
aF4272.27
aF4262.58
aF4181.49
aF4430.88
aF4428.33
aF3613.35
aF3888.2400000000002
aF4095.3
aF3945.36
aF3138.03
aF4011.66
aF4045.32
aa(lp2
I0
aI0
aI0
aI0
aI0
aI0
aI0
aI0
aI0
aI0
aI0
aI0
aI0
aI0
aaI00
a.(lp0
I86
aI2
aI-1
a(lp1
F4312.05
aF4472.1900000000005
aF4268.1900000000005
aF4264.11
aF4183.02
aF4435.47
aF4423.74
aF3607.7400000000002
aF3879.06
aF4092.75
aF3941.79
aF3204.33
aF4006.05
aF4047.36
aa(lp2
I0
aI0
aI0
aI0
aI0
aI0
aI0
aI0
aI0
aI0
aI0
aI0
aI0
aI0
aaI00
a.(lp0
I91
aI2
aI-1
a(lp1
F4310.52
aF4468.11
aF4268.1900000000005
aF4265.13
aF4179.45
aF4433.9400000000005
aF4423.2300000000005
aF3612.33
aF3878.55
aF4097.34
aF3933.12
aF3181.89
aF3997.89
aF4034.1
aa(lp2
I0
aI0
aI0
aI0
aI0
aI0
aI0
aI0
aI0
aI0
aI0
aI0
aI0
aI0
aaI00
a.(lp0
I95
aI2
aI-1
a(lp1
F4309.5
aF4469.64
aF4266.15
aF4263.6
aF4177.92
aF4432.41
aF4423.74
aF3597.54
aF3864.27
aF4088.67
aF3930.57
aF3221.67
aF3991.77
aF4037.16
aa(lp2
I0
aI0
aI0
aI0
aI0
aI0
aI0
aI0
aI0
aI0
aI0
aI0
aI0
aI0
aaI00
a.(lp0
I99
aI2
aI-1
a(lp1
F4309.5
aF4473.21
aF4267.17
aF4262.58
aF4185.06
aF4432.92
aF4425.27
aF3613.35
aF3889.77
aF4093.26
aF3947.91
aF3148.7400000000002
aF4011.15
aF4044.3
aa(lp2
I0
aI0
aI0
aI0
aI0
aI0
aI0
aI0
aI0
aI0
aI0
aI0
aI0
aI0
aaI00
a.(lp0
I103
aI2
aI-1
a(lp1
F4315.62
aF4474.74
aF4273.8
aF4264.11
aF4184.04
aF4433.43
aF4427.31
aF3628.65
aF3904.05
aF4101.42
aF3953.01
aF3108.4500000000003
aF4031.55
aF4051.9500000000003
aa(lp2
I0
aI0
aI0
aI0
aI0
aI0
aI0
aI0
aI0
aI0
aI0
aI0
aI0
aI0
aaI00
a.(lp0
I107
aI2
aI-1
a(lp1
F4309.5
aF4471.17
aF4268.1900000000005
aF4264.62
aF4184.04
aF4435.47
aF4426.8
aF3625.59
aF3895.89
aF4103.97
aF3941.28
aF3132.93
aF4016.25
aF4042.26
aa(lp2
I0
aI0
aI0
aI0
aI0
aI0
aI0
aI0
aI0
aI0
aI0
aI0
aI0
aI0
aaI00
a.(lp0
I111
aI2
aI-1
a(lp1
F4311.03
aF4473.21
aF4269.21
aF4264.11
aF4183.53
aF4434.45
aF4425.27
aF3625.08
aF3898.44
aF4100.91
aF3945.36
aF3225.75
aF4018.8
aF4047.36
aa(lp2
I0
aI0
aI0
aI0
aI0
aI0
aI0
aI0
aI0
aI0
aI0
aI0
aI0
aI0
aaI00
a.(lp0
I115
aI2
aI-1
a(lp1
F4312.56
aF4470.66
aF4269.21
aF4266.66
aF4182.51
aF4436.49
aF4425.78
aF3629.67
aF3899.46
aF4104.4800000000005
aF3946.89
aF3189.03
aF4023.9
aF4044.3
aa(lp2
I0
aI0
aI0
aI0
aI0
aI0
aI0
aI0
aI0
aI0
aI0
aI0
aI0
aI0
aaI00
a.(lp0
I39
aI2
aI-1
a(lp1
F4311.54
aF4467.09
aF4270.2300000000005
aF4264.62
aF4181.49
aF4431.39
aF4425.27
aF3614.88
aF3886.2000000000003
aF4095.81
aF3945.87
aF3188.52
aF4009.62
aF4046.85
aa(lp2
I0
aI0
aI0
aI0
aI0
aI0
aI0
aI0
aI0
aI0
aI0
aI0
aI0
aI0
aaI00
a.(lp0
I45
aI2
aI-1
a(lp1
F4310.52
aF4472.1900000000005
aF4267.68
aF4266.15
aF4183.02
aF4433.9400000000005
aF4428.84
aF3621.51
aF3893.85
aF4103.46
aF3948.42
aF3282.36
aF4019.82
aF4046.85
aa(lp2
I0
aI0
aI0
aI0
aI0
aI0
aI0
aI0
aI0
aI0
aI0
aI0
aI0
aI0
aaI00
a.(lp0
I49
aI2
aI-1
a(lp1
F4311.03
aF4466.58
aF4264.11
aF4265.64
aF4183.53
aF4431.9
aF4427.31
aF3608.76
aF3876.0
aF4095.81
aF3935.67
aF3227.79
aF4002.48
aF4037.16
aa(lp2
I0
aI0
aI0
aI0
aI0
aI0
aI0
aI0
aI0
aI0
aI0
aI0
aI0
aI0
aaI00
a.(lp0
I53
aI2
aI-1
a(lp1
F4304.91
aF4465.05
aF4268.7
aF4264.62
aF4181.49
aF4431.39
aF4423.74
aF3597.54
aF3862.7400000000002
aF4087.14
aF3933.12
aF3231.36
aF3990.2400000000002
aF4034.1
aa(lp2
I0
aI0
aI0
aI0
aI0
aI0
aI0
aI0
aI0
aI0
aI0
aI0
aI0
aI0
aaI00
a.(lp0
I58
aI2
aI-1
a(lp1
F4308.4800000000005
aF4466.58
aF4268.1900000000005
aF4262.58
aF4183.02
aF4432.41
aF4424.25
aF3601.11
aF3864.27
aF4086.12
aF3933.12
aF3260.43
aF3991.77
aF4037.67
aa(lp2
I0
aI0
aI0
aI0
aI0
aI0
aI0
aI0
aI0
aI0
aI0
aI0
aI0
aI0
aaI00
a.(lp0
I62
aI2
aI-1
a(lp1
F4310.52
aF4470.15
aF4267.68
aF4261.56
aF4185.57
aF4434.96
aF4422.21
aF3612.84
aF3885.69
aF4092.75
aF3946.89
aF3210.4500000000003
aF4009.11
aF4048.89
aa(lp2
I0
aI0
aI0
aI0
aI0
aI0
aI0
aI0
aI0
aI0
aI0
aI0
aI0
aI0
aaI00
a.(lp0
I66
aI2
aI-1
a(lp1
F4308.4800000000005
aF4470.15
aF4269.21
aF4264.62
aF4179.96
aF4432.41
aF4423.2300000000005
aF3610.29
aF3879.06
aF4095.3
aF3939.75
aF3145.17
aF4005.03
aF4040.2200000000003
aa(lp2
I0
aI0
aI0
aI0
aI0
aI0
aI0
aI0
aI0
aI0
aI0
aI0
aI0
aI0
aaI00
a.(lp0
I70
aI2
aI-1
a(lp1
F4308.99
aF4471.17
aF4269.72
aF4263.09
aF4183.02
aF4435.47
aF4424.76
aF3608.76
aF3877.53
aF4093.26
aF3944.85
aF3162.51
aF4004.52
aF4042.26
aa(lp2
I0
aI0
aI0
aI0
aI0
aI0
aI0
aI0
aI0
aI0
aI0
aI0
aI0
aI0
aaI00
a.(lp0
I126
aI2
aI-1
a(lp1
F4307.97
aF4469.13
aF4269.21
aF4263.6
aF4184.04
aF4434.45
aF4423.74
aF3614.88
aF3883.14
aF4094.28
aF3947.91
aF3182.91
aF4008.09
aF4043.79
aa(lp2
I0
aI0
aI0
aI0
aI0
aI0
aI0
aI0
aI0
aI0
aI0
aI0
aI0
aI0
aaI00
a.(lp0
I1
aI2
aI-1
a(lp1
F4311.03
aF4469.64
aF4270.2300000000005
aF4262.58
aF4184.55
aF4431.9
aF4424.25
aF3609.27
aF3884.67
aF4094.79
aF3941.28
aF3154.86
aF4008.09
aF4042.26
aa(lp2
I0
aI0
aI0
aI0
aI0
aI0
aI0
aI0
aI0
aI0
aI0
aI0
aI0
aI0
aaI00
a.(lp0
I5
aI2
aI-1
a(lp1
F4309.5
aF4466.07
aF4264.11
aF4263.6
aF4186.08
aF4431.9
aF4423.74
aF3605.7000000000003
aF3881.1
aF4091.73
aF3945.87
aF3159.96
aF4004.01
aF4041.75
aa(lp2
I0
aI0
aI0
aI0
aI0
aI0
aI0
aI0
aI0
aI0
aI0
aI0
aI0
aI0
aaI00
a.(lp0
I9
aI2
aI-1
a(lp1
F4312.05
aF4470.66
aF4272.27
aF4264.11
aF4186.59
aF4435.9800000000005
aF4424.25
aF3630.69
aF3914.76
aF4109.07
aF3960.66
aF3082.9500000000003
aF4040.2200000000003
aF4052.46
aa(lp2
I0
aI0
aI0
aI0
aI0
aI0
aI0
aI0
aI0
aI0
aI0
aI0
aI0
aI0
aaI00
a.(lp0
I14
aI2
aI-1
a(lp1
F4312.05
aF4472.1900000000005
aF4273.8
aF4264.62
aF4186.59
aF4436.49
aF4426.8
aF3631.71
aF3914.25
aF4103.97
aF3962.19
aF3099.78
aF4037.16
aF4053.48
aa(lp2
I0
aI0
aI0
aI0
aI0
aI0
aI0
aI0
aI0
aI0
aI0
aI0
aI0
aI0
aaI00
a.(lp0
I18
aI2
aI-1
a(lp1
F4307.97
aF4472.1900000000005
aF4271.25
aF4265.64
aF4184.04
aF4434.96
aF4427.82
aF3629.16
aF3900.9900000000002
aF4104.4800000000005
aF3953.01
aF3141.6
aF4025.4300000000003
aF4044.3
aa(lp2
I0
aI0
aI0
aI0
aI0
aI0
aI0
aI0
aI0
aI0
aI0
aI0
aI0
aI0
aaI00
a.(lp0
I22
aI2
aI-1
a(lp1
F4308.99
aF4473.72
aF4269.72
aF4266.15
aF4183.53
aF4434.45
aF4427.31
aF3617.94
aF3892.83
aF4100.91
aF3945.87
aF3288.9900000000002
aF4021.35
aF4046.34
aa(lp2
I0
aI0
aI0
aI0
aI0
aI0
aI0
aI0
aI0
aI0
aI0
aI0
aI0
aI0
aaI00
a.(lp0
I26
aI2
aI-1
a(lp1
F4310.52
aF4472.7
aF4272.78
aF4266.66
aF4181.49
aF4435.47
aF4425.78
aF3626.61
aF3904.05
aF4105.5
aF3953.01
aF3245.64
aF4029.0
aF4046.85
aa(lp2
I0
aI0
aI0
aI0
aI0
aI0
aI0
aI0
aI0
aI0
aI0
aI0
aI0
aI0
aaI00
a.(lp0
I84
aI2
aI-1
a(lp1
F4306.95
aF4466.07
aF4271.76
aF4263.6
aF4184.04
aF4434.45
aF4425.78
aF3610.29
aF3883.65
aF4088.67
aF3950.9700000000003
aF3240.54
aF4013.19
aF4045.32
aa(lp2
I0
aI0
aI0
aI0
aI0
aI0
aI0
aI0
aI0
aI0
aI0
aI0
aI0
aI0
aaI00
a.(lp0
I88
aI2
aI-1
a(lp1
F4307.46
aF4465.56
aF4271.76
aF4264.11
aF4178.43
aF4433.43
aF4426.29
aF3606.21
aF3878.55
aF4090.71
aF3941.28
aF3104.37
aF4006.56
aF4041.75
aa(lp2
I0
aI0
aI0
aI0
aI0
aI0
aI0
aI0
aI0
aI0
aI0
aI0
aI0
aI0
aaI00
a.(lp0
I92
aI2
aI-1
a(lp1
F4307.97
aF4466.58
aF4272.27
aF4266.66
aF4183.02
aF4433.9400000000005
aF4424.25
aF3603.66
aF3878.04
aF4087.65
aF3945.87
aF3190.05
aF4011.15
aF4043.79
aa(lp2
I0
aI0
aI0
aI0
aI0
aI0
aI0
aI0
aI0
aI0
aI0
aI0
aI0
aI0
aaI00
a.(lp0
I97
aI2
aI-1
a(lp1
F4306.4400000000005
aF4471.17
aF4270.2300000000005
aF4265.64
aF4182.51
aF4436.49
aF4424.76
aF3611.82
aF3886.2000000000003
aF4085.1
aF3951.9900000000002
aF3175.26
aF4015.23
aF4047.87
aa(lp2
I0
aI0
aI0
aI0
aI0
aI0
aI0
aI0
aI0
aI0
aI0
aI0
aI0
aI0
aaI00
a.(lp0
I101
aI2
aI-1
a(lp1
F4310.01
aF4471.68
aF4275.33
aF4266.66
aF4183.02
aF4438.02
aF4425.27
aF3629.67
aF3912.7200000000003
aF4104.4800000000005
aF3957.6
aF3090.09
aF4036.65
aF4053.48
aa(lp2
I0
aI0
aI0
aI0
aI0
aI0
aI0
aI0
aI0
aI0
aI0
aI0
aI0
aI0
aaI00
a.(lp0
I106
aI2
aI-1
a(lp1
F4307.97
aF4471.68
aF4272.78
aF4261.05
aF4179.96
aF4435.9800000000005
aF4426.29
aF3615.9
aF3891.81
aF4098.87
aF3949.44
aF3094.68
aF4024.41
aF4048.38
aa(lp2
I0
aI0
aI0
aI0
aI0
aI0
aI0
aI0
aI0
aI0
aI0
aI0
aI0
aI0
aaI00
a.(lp0
I110
aI2
aI-1
a(lp1
F4305.93
aF4468.62
aF4272.78
aF4263.6
aF4182.51
aF4434.45
aF4424.25
aF3607.7400000000002
aF3879.06
aF4092.2400000000002
aF3944.34
aF3157.92
aF4008.6
aF4044.81
aa(lp2
I0
aI0
aI0
aI0
aI0
aI0
aI0
aI0
aI0
aI0
aI0
aI0
aI0
aI0
aaI00
a.(lp0
I115
aI2
aI-1
a(lp1
F4307.46
aF4467.09
aF4270.2300000000005
aF4265.64
aF4185.06
aF4430.37
aF4425.78
aF3610.8
aF3884.16
aF4088.67
aF3948.42
aF3196.68
aF4012.17
aF4046.34
aa(lp2
I0
aI0
aI0
aI0
aI0
aI0
aI0
aI0
aI0
aI0
aI0
aI0
aI0
aI0
aaI00
a.