(lp0
I35
aI2
aI-1
a(lp1
F4185.57
aF4375.29
aF4197.81
aF4213.11
aF4109.07
aF4500.75
aF4565.52
aF3986.67
aF4248.3
aF4170.27
aF4421.7
aF3883.65
aF4294.2
aF4321.74
aa(lp2
I0
aI0
aI0
aI0
aI0
aI0
aI0
aI0
aI0
aI0
aI0
aI0
aI0
aI0
aaI00
a.(lp0
I36
aI2
aI-1
a(lp1
F4185.57
aF4375.29
aF4197.81
aF4213.11
aF4109.07
aF4500.75
aF4565.52
aF3986.67
aF4248.3
aF4170.27
aF4421.7
aF3883.65
aF4294.2
aF4321.74
aa(lp2
I0
aI0
aI0
aI0
aI0
aI0
aI0
aI0
aI0
aI0
aI0
aI0
aI0
aI0
aaI00
a.(lp0
I37
aI2
aI-1
a(lp1
F4185.57
aF4375.29
aF4197.81
aF4213.11
aF4109.07
aF4500.75
aF4565.52
aF3986.67
aF4248.3
aF4170.27
aF4421.7
aF3883.65
aF4294.2
aF4321.74
aa(lp2
I0
aI0
aI0
aI0
aI0
aI0
aI0
aI0
aI0
aI0
aI0
aI0
aI0
aI0
aaI00
a.(lp0
I38
aI2
aI-1
a(lp1
F4185.57
aF4375.29
aF4197.81
aF4213.11
aF4109.07
aF4500.75
aF4565.52
aF3986.67
aF4248.3
aF4170.27
aF4421.7
aF3883.65
aF4294.2
aF4321.74
aa(lp2
I0
aI0
aI0
aI0
aI0
aI0
aI0
aI0
aI0
aI0
aI0
aI0
aI0
aI0
aaI00
a.(lp0
I39
aI2
aI-1
a(lp1
F4185.57
aF4375.29
aF4197.81
aF4213.11
aF4109.07
aF4500.75
aF4565.52
aF3986.67
aF4248.3
aF4170.27
aF4421.7
aF3883.65
aF4294.2
aF4321.74
aa(lp2
I0
aI0
aI0
aI0
aI0
aI0
aI0
aI0
aI0
aI0
aI0
aI0
aI0
aI0
aaI00
a.(lp0
I40
aI2
aI-1
a(lp1
F4185.57
aF4375.29
aF4197.81
aF4213.11
aF4109.07
aF4500.75
aF4565.52
aF3986.67
aF4248.3
aF4170.27
aF4421.7
aF3883.65
aF4294.2
aF4321.74
aa(lp2
I0
aI0
aI0
aI0
aI0
aI0
aI0
aI0
aI0
aI0
aI0
aI0
aI0
aI0
aaI00
a.(lp0
I41
aI2
aI-1
a(lp1
F4185.57
aF4375.29
aF4197.81
aF4213.11
aF4109.07
aF4500.75
aF4565.52
aF3986.67
aF4248.3
aF4170.27
aF4421.7
aF3883.65
aF4294.2
aF4321.74
aa(lp2
I0
aI0
aI0
aI0
aI0
aI0
aI0
aI0
aI0
aI0
aI0
aI0
aI0
aI0
aaI00
a.(lp0
I42
aI2
aI-1
a(lp1
F4185.57
aF4375.29
aF4197.81
aF4213.11
aF4109.07
aF4500.75
aF4565.52
aF3986.67
aF4248.3
aF4170.27
aF4421.7
aF3883.65
aF4294.2
aF4321.74
aa(lp2
I0
aI0
aI0
aI0
aI0
aI0
aI0
aI0
aI0
aI0
aI0
aI0
aI0
aI0
aaI00
a.(lp0
I43
aI2
aI-1
a(lp1
F4200.87
aF4399.77
aF4212.6
aF4236.57
aF4116.72
aF4532.37
aF4567.05
aF4004.01
aF4280.9400000000005
aF4179.96
aF4434.45
aF3885.69
aF4296.75
aF4319.7
aa(lp2
I0
aI0
aI0
aI0
aI0
aI0
aI0
aI0
aI0
aI0
aI0
aI0
aI0
aI0
aaI00
a.(lp0
I44
aI2
aI-1
a(lp1
F4200.87
aF4399.77
aF4212.6
aF4236.57
aF4116.72
aF4532.37
aF4567.05
aF4004.01
aF4280.9400000000005
aF4179.96
aF4434.45
aF3885.69
aF4296.75
aF4319.7
aa(lp2
I0
aI0
aI0
aI0
aI0
aI0
aI0
aI0
aI0
aI0
aI0
aI0
aI0
aI0
aaI00
a.(lp0
I45
aI2
aI-1
a(lp1
F4200.87
aF4399.77
aF4212.6
aF4236.57
aF4116.72
aF4532.37
aF4567.05
aF4004.01
aF4280.9400000000005
aF4179.96
aF4434.45
aF3885.69
aF4296.75
aF4319.7
aa(lp2
I0
aI0
aI0
aI0
aI0
aI0
aI0
aI0
aI0
aI0
aI0
aI0
aI0
aI0
aaI00
a.(lp0
I46
aI2
aI-1
a(lp1
F4200.87
aF4399.77
aF4212.6
aF4236.57
aF4116.72
aF4532.37
aF4567.05
aF4004.01
aF4280.9400000000005
aF4179.96
aF4434.45
aF3885.69
aF4296.75
aF4319.7
aa(lp2
I0
aI0
aI0
aI0
aI0
aI0
aI0
aI0
aI0
aI0
aI0
aI0
aI0
aI0
aaI00
a.(lp0
I47
aI2
aI-1
a(lp1
F4200.87
aF4399.77
aF4212.6
aF4236.57
aF4116.72
aF4532.37
aF4567.05
aF4004.01
aF4280.9400000000005
aF4179.96
aF4434.45
aF3885.69
aF4296.75
aF4319.7
aa(lp2
I0
aI0
aI0
aI0
aI0
aI0
aI0
aI0
aI0
aI0
aI0
aI0
aI0
aI0
aaI00
a.(lp0
I48
aI2
aI-1
a(lp1
F4200.87
aF4399.77
aF4212.6
aF4236.57
aF4116.72
aF4532.37
aF4567.05
aF4004.01
aF4280.9400000000005
aF4179.96
aF4434.45
aF3885.69
aF4296.75
aF4319.7
aa(lp2
I0
aI0
aI0
aI0
aI0
aI0
aI0
aI0
aI0
aI0
aI0
aI0
aI0
aI0
aaI00
a.(lp0
I49
aI2
aI-1
a(lp1
F4200.87
aF4399.77
aF4212.6
aF4236.57
aF4116.72
aF4532.37
aF4567.05
aF4004.01
aF4280.9400000000005
aF4179.96
aF4434.45
aF3885.69
aF4296.75
aF4319.7
aa(lp2
I0
aI0
aI0
aI0
aI0
aI0
aI0
aI0
aI0
aI0
aI0
aI0
aI0
aI0
aaI00
a.(lp0
I50
aI2
aI-1
a(lp1
F4200.87
aF4399.77
aF4212.6
aF4236.57
aF4116.72
aF4532.37
aF4567.05
aF4004.01
aF4280.9400000000005
aF4179.96
aF4434.45
aF3885.69
aF4296.75
aF4319.7
aa(lp2
I0
aI0
aI0
aI0
aI0
aI0
aI0
aI0
aI0
aI0
aI0
aI0
aI0
aI0
aaI00
a.(lp0
I51
aI2
aI-1
a(lp1
F4412.52
aF4595.1
aF4413.03
aF4314.6
aF4321.2300000000005
aF4605.3
aF4578.27
aF4114.68
aF4384.9800000000005
aF4386.0
aF4580.82
aF4214.13
aF4519.11
aF4528.8
aa(lp2
I0
aI0
aI0
aI0
aI0
aI0
aI0
aI0
aI0
aI0
aI0
aI0
aI0
aI0
aaI00
a.(lp0
I52
aI2
aI-1
a(lp1
F4412.52
aF4595.1
aF4413.03
aF4314.6
aF4321.2300000000005
aF4605.3
aF4578.27
aF4114.68
aF4384.9800000000005
aF4386.0
aF4580.82
aF4214.13
aF4519.11
aF4528.8
aa(lp2
I0
aI0
aI0
aI0
aI0
aI0
aI0
aI0
aI0
aI0
aI0
aI0
aI0
aI0
aaI00
a.(lp0
I53
aI2
aI-1
a(lp1
F4412.52
aF4595.1
aF4413.03
aF4314.6
aF4321.2300000000005
aF4605.3
aF4578.27
aF4114.68
aF4384.9800000000005
aF4386.0
aF4580.82
aF4214.13
aF4519.11
aF4528.8
aa(lp2
I0
aI0
aI0
aI0
aI0
aI0
aI0
aI0
aI0
aI0
aI0
aI0
aI0
aI0
aaI00
a.(lp0
I54
aI2
aI-1
a(lp1
F4412.52
aF4595.1
aF4413.03
aF4314.6
aF4321.2300000000005
aF4605.3
aF4578.27
aF4114.68
aF4384.9800000000005
aF4386.0
aF4580.82
aF4214.13
aF4519.11
aF4528.8
aa(lp2
I0
aI0
aI0
aI0
aI0
aI0
aI0
aI0
aI0
aI0
aI0
aI0
aI0
aI0
aaI00
a.(lp0
I55
aI2
aI-1
a(lp1
F4412.52
aF4595.1
aF4413.03
aF4314.6
aF4321.2300000000005
aF4605.3
aF4578.27
aF4114.68
aF4384.9800000000005
aF4386.0
aF4580.82
aF4214.13
aF4519.11
aF4528.8
aa(lp2
I0
aI0
aI0
aI0
aI0
aI0
aI0
aI0
aI0
aI0
aI0
aI0
aI0
aI0
aaI00
a.(lp0
I56
aI2
aI-1
a(lp1
F4412.52
aF4595.1
aF4413.03
aF4314.6
aF4321.2300000000005
aF4605.3
aF4578.27
aF4114.68
aF4384.9800000000005
aF4386.0
aF4580.82
aF4214.13
aF4519.11
aF4528.8
aa(lp2
I0
aI0
aI0
aI0
aI0
aI0
aI0
aI0
aI0
aI0
aI0
aI0
aI0
aI0
aaI00
a.(lp0
I57
aI2
aI-1
a(lp1
F4412.52
aF4595.1
aF4413.03
aF4314.6
aF4321.2300000000005
aF4605.3
aF4578.27
aF4114.68
aF4384.9800000000005
aF4386.0
aF4580.82
aF4214.13
aF4519.11
aF4528.8
aa(lp2
I0
aI0
aI0
aI0
aI0
aI0
aI0
aI0
aI0
aI0
aI0
aI0
aI0
aI0
aaI00
a.(lp0
I58
aI2
aI-1
a(lp1
F4412.52
aF4595.1
aF4413.03
aF4314.6
aF4321.2300000000005
aF4605.3
aF4578.27
aF4114.68
aF4384.9800000000005
aF4386.0
aF4580.82
aF4214.13
aF4519.11
aF4528.8
aa(lp2
I0
aI0
aI0
aI0
aI0
aI0
aI0
aI0
aI0
aI0
aI0
aI0
aI0
aI0
aaI00
a.(lp0
I59
aI2
aI-1
a(lp1
F4492.59
aF4660.38
aF4489.02
aF4327.86
aF4402.32
aF4609.89
aF4579.29
aF4145.79
aF4398.24
aF4458.42
aF4637.43
aF4443.63
aF4613.46
aF4622.13
aa(lp2
I0
aI0
aI0
aI0
aI0
aI0
aI0
aI0
aI0
aI0
aI0
aI0
aI0
aI0
aaI00
a.(lp0
I60
aI2
aI-1
a(lp1
F4492.59
aF4660.38
aF4489.02
aF4327.86
aF4402.32
aF4609.89
aF4579.29
aF4145.79
aF4398.24
aF4458.42
aF4637.43
aF4443.63
aF4613.46
aF4622.13
aa(lp2
I0
aI0
aI0
aI0
aI0
aI0
aI0
aI0
aI0
aI0
aI0
aI0
aI0
aI0
aaI00
a.(lp0
I61
aI2
aI-1
a(lp1
F4492.59
aF4660.38
aF4489.02
aF4327.86
aF4402.32
aF4609.89
aF4579.29
aF4145.79
aF4398.24
aF4458.42
aF4637.43
aF4443.63
aF4613.46
aF4622.13
aa(lp2
I0
aI0
aI0
aI0
aI0
aI0
aI0
aI0
aI0
aI0
aI0
aI0
aI0
aI0
aaI00
a.(lp0
I62
aI2
aI-1
a(lp1
F4492.59
aF4660.38
aF4489.02
aF4327.86
aF4402.32
aF4609.89
aF4579.29
aF4145.79
aF4398.24
aF4458.42
aF4637.43
aF4443.63
aF4613.46
aF4622.13
aa(lp2
I0
aI0
aI0
aI0
aI0
aI0
aI0
aI0
aI0
aI0
aI0
aI0
aI0
aI0
aaI00
a.(lp0
I63
aI2
aI-1
a(lp1
F4492.59
aF4660.38
aF4489.02
aF4327.86
aF4402.32
aF4609.89
aF4579.29
aF4145.79
aF4398.24
aF4458.42
aF4637.43
aF4443.63
aF4613.46
aF4622.13
aa(lp2
I0
aI0
aI0
aI0
aI0
aI0
aI0
aI0
aI0
aI0
aI0
aI0
aI0
aI0
aaI00
a.(lp0
I64
aI2
aI-1
a(lp1
F4492.59
aF4660.38
aF4489.02
aF4327.86
aF4402.32
aF4609.89
aF4579.29
aF4145.79
aF4398.24
aF4458.42
aF4637.43
aF4443.63
aF4613.46
aF4622.13
aa(lp2
I0
aI0
aI0
aI0
aI0
aI0
aI0
aI0
aI0
aI0
aI0
aI0
aI0
aI0
aaI00
a.(lp0
I65
aI2
aI-1
a(lp1
F4492.59
aF4660.38
aF4489.02
aF4327.86
aF4402.32
aF4609.89
aF4579.29
aF4145.79
aF4398.24
aF4458.42
aF4637.43
aF4443.63
aF4613.46
aF4622.13
aa(lp2
I0
aI0
aI0
aI0
aI0
aI0
aI0
aI0
aI0
aI0
aI0
aI0
aI0
aI0
aaI00
a.(lp0
I66
aI2
aI-1
a(lp1
F4492.59
aF4660.38
aF4489.02
aF4327.86
aF4402.32
aF4609.89
aF4579.29
aF4145.79
aF4398.24
aF4458.42
aF4637.43
aF4443.63
aF4613.46
aF4622.13
aa(lp2
I0
aI0
aI0
aI0
aI0
aI0
aI0
aI0
aI0
aI0
aI0
aI0
aI0
aI0
aaI00
a.(lp0
I67
aI2
aI-1
a(lp1
F4344.6900000000005
aF4518.6
aF4347.75
aF4266.66
aF4260.03
aF4549.2
aF4569.09
aF4062.15
aF4316.13
aF4313.58
aF4532.37
aF4275.33
aF4462.5
aF4483.92
aa(lp2
I0
aI0
aI0
aI0
aI0
aI0
aI0
aI0
aI0
aI0
aI0
aI0
aI0
aI0
aaI00
a.(lp0
I68
aI2
aI-1
a(lp1
F4344.6900000000005
aF4518.6
aF4347.75
aF4266.66
aF4260.03
aF4549.2
aF4569.09
aF4062.15
aF4316.13
aF4313.58
aF4532.37
aF4275.33
aF4462.5
aF4483.92
aa(lp2
I0
aI0
aI0
aI0
aI0
aI0
aI0
aI0
aI0
aI0
aI0
aI0
aI0
aI0
aaI00
a.(lp0
I69
aI2
aI-1
a(lp1
F4344.6900000000005
aF4518.6
aF4347.75
aF4266.66
aF4260.03
aF4549.2
aF4569.09
aF4062.15
aF4316.13
aF4313.58
aF4532.37
aF4275.33
aF4462.5
aF4483.92
aa(lp2
I0
aI0
aI0
aI0
aI0
aI0
aI0
aI0
aI0
aI0
aI0
aI0
aI0
aI0
aaI00
a.(lp0
I70
aI2
aI-1
a(lp1
F4344.6900000000005
aF4518.6
aF4347.75
aF4266.66
aF4260.03
aF4549.2
aF4569.09
aF4062.15
aF4316.13
aF4313.58
aF4532.37
aF4275.33
aF4462.5
aF4483.92
aa(lp2
I0
aI0
aI0
aI0
aI0
aI0
aI0
aI0
aI0
aI0
aI0
aI0
aI0
aI0
aaI00
a.(lp0
I71
aI2
aI-1
a(lp1
F4344.6900000000005
aF4518.6
aF4347.75
aF4266.66
aF4260.03
aF4549.2
aF4569.09
aF4062.15
aF4316.13
aF4313.58
aF4532.37
aF4275.33
aF4462.5
aF4483.92
aa(lp2
I0
aI0
aI0
aI0
aI0
aI0
aI0
aI0
aI0
aI0
aI0
aI0
aI0
aI0
aaI00
a.(lp0
I72
aI2
aI-1
a(lp1
F4344.6900000000005
aF4518.6
aF4347.75
aF4266.66
aF4260.03
aF4549.2
aF4569.09
aF4062.15
aF4316.13
aF4313.58
aF4532.37
aF4275.33
aF4462.5
aF4483.92
aa(lp2
I0
aI0
aI0
aI0
aI0
aI0
aI0
aI0
aI0
aI0
aI0
aI0
aI0
aI0
aaI00
a.(lp0
I73
aI2
aI-1
a(lp1
F4344.6900000000005
aF4518.6
aF4347.75
aF4266.66
aF4260.03
aF4549.2
aF4569.09
aF4062.15
aF4316.13
aF4313.58
aF4532.37
aF4275.33
aF4462.5
aF4483.92
aa(lp2
I0
aI0
aI0
aI0
aI0
aI0
aI0
aI0
aI0
aI0
aI0
aI0
aI0
aI0
aaI00
a.(lp0
I74
aI2
aI-1
a(lp1
F4344.6900000000005
aF4518.6
aF4347.75
aF4266.66
aF4260.03
aF4549.2
aF4569.09
aF4062.15
aF4316.13
aF4313.58
aF4532.37
aF4275.33
aF4462.5
aF4483.92
aa(lp2
I0
aI0
aI0
aI0
aI0
aI0
aI0
aI0
aI0
aI0
aI0
aI0
aI0
aI0
aaI00
a.(lp0
I75
aI2
aI-1
a(lp1
F4221.27
aF4411.5
aF4229.9400000000005
aF4236.06
aF4148.34
aF4524.21
aF4569.09
aF4004.52
aF4275.84
aF4197.81
aF4440.06
aF4013.19
aF4317.66
aF4347.75
aa(lp2
I0
aI0
aI0
aI0
aI0
aI0
aI0
aI0
aI0
aI0
aI0
aI0
aI0
aI0
aaI00
a.(lp0
I76
aI2
aI-1
a(lp1
F4221.27
aF4411.5
aF4229.9400000000005
aF4236.06
aF4148.34
aF4524.21
aF4569.09
aF4004.52
aF4275.84
aF4197.81
aF4440.06
aF4013.19
aF4317.66
aF4347.75
aa(lp2
I0
aI0
aI0
aI0
aI0
aI0
aI0
aI0
aI0
aI0
aI0
aI0
aI0
aI0
aaI00
a.(lp0
I77
aI2
aI-1
a(lp1
F4221.27
aF4411.5
aF4229.9400000000005
aF4236.06
aF4148.34
aF4524.21
aF4569.09
aF4004.52
aF4275.84
aF4197.81
aF4440.06
aF4013.19
aF4317.66
aF4347.75
aa(lp2
I0
aI0
aI0
aI0
aI0
aI0
aI0
aI0
aI0
aI0
aI0
aI0
aI0
aI0
aaI00
a.(lp0
I78
aI2
aI-1
a(lp1
F4221.27
aF4411.5
aF4229.9400000000005
aF4236.06
aF4148.34
aF4524.21
aF4569.09
aF4004.52
aF4275.84
aF4197.81
aF4440.06
aF4013.19
aF4317.66
aF4347.75
aa(lp2
I0
aI0
aI0
aI0
aI0
aI0
aI0
aI0
aI0
aI0
aI0
aI0
aI0
aI0
aaI00
a.(lp0
I79
aI2
aI-1
a(lp1
F4221.27
aF4411.5
aF4229.9400000000005
aF4236.06
aF4148.34
aF4524.21
aF4569.09
aF4004.52
aF4275.84
aF4197.81
aF4440.06
aF4013.19
aF4317.66
aF4347.75
aa(lp2
I0
aI0
aI0
aI0
aI0
aI0
aI0
aI0
aI0
aI0
aI0
aI0
aI0
aI0
aaI00
a.(lp0
I80
aI2
aI-1
a(lp1
F4221.27
aF4411.5
aF4229.9400000000005
aF4236.06
aF4148.34
aF4524.21
aF4569.09
aF4004.52
aF4275.84
aF4197.81
aF4440.06
aF4013.19
aF4317.66
aF4347.75
aa(lp2
I0
aI0
aI0
aI0
aI0
aI0
aI0
aI0
aI0
aI0
aI0
aI0
aI0
aI0
aaI00
a.(lp0
I81
aI2
aI-1
a(lp1
F4221.27
aF4411.5
aF4229.9400000000005
aF4236.06
aF4148.34
aF4524.21
aF4569.09
aF4004.52
aF4275.84
aF4197.81
aF4440.06
aF4013.19
aF4317.66
aF4347.75
aa(lp2
I0
aI0
aI0
aI0
aI0
aI0
aI0
aI0
aI0
aI0
aI0
aI0
aI0
aI0
aaI00
a.(lp0
I82
aI2
aI-1
a(lp1
F4221.27
aF4411.5
aF4229.9400000000005
aF4236.06
aF4148.34
aF4524.21
aF4569.09
aF4004.52
aF4275.84
aF4197.81
aF4440.06
aF4013.19
aF4317.66
aF4347.75
aa(lp2
I0
aI0
aI0
aI0
aI0
aI0
aI0
aI0
aI0
aI0
aI0
aI0
aI0
aI0
aaI00
a.(lp0
I83
aI2
aI-1
a(lp1
F4300.83
aF4493.61
aF4307.46
aF4280.9400000000005
aF4241.16
aF4568.07
aF4579.29
aF4055.01
aF4331.43
aF4271.76
aF4497.6900000000005
aF4088.16
aF4383.45
aF4408.95
aa(lp2
I0
aI0
aI0
aI0
aI0
aI0
aI0
aI0
aI0
aI0
aI0
aI0
aI0
aI0
aaI00
a.(lp0
I84
aI2
aI-1
a(lp1
F4300.83
aF4493.61
aF4307.46
aF4280.9400000000005
aF4241.16
aF4568.07
aF4579.29
aF4055.01
aF4331.43
aF4271.76
aF4497.6900000000005
aF4088.16
aF4383.45
aF4408.95
aa(lp2
I0
aI0
aI0
aI0
aI0
aI0
aI0
aI0
aI0
aI0
aI0
aI0
aI0
aI0
aaI00
a.(lp0
I85
aI2
aI-1
a(lp1
F4437.51
aF4614.99
aF4441.59
aF4323.27
aF4372.74
aF4605.81
aF4581.84
aF4123.35
aF4388.55
aF4409.46
aF4604.28
aF4350.81
aF4536.96
aF4553.28
aa(lp2
I0
aI0
aI0
aI0
aI0
aI0
aI0
aI0
aI0
aI0
aI0
aI0
aI0
aI0
aaI00
a.(lp0
I86
aI2
aI-1
a(lp1
F4396.71
aF4567.05
aF4407.42
aF4294.2
aF4319.1900000000005
aF4571.64
aF4574.7
aF4096.32
aF4352.34
aF4387.02
aF4582.86
aF4332.96
aF4516.05
aF4533.39
aa(lp2
I0
aI0
aI0
aI0
aI0
aI0
aI0
aI0
aI0
aI0
aI0
aI0
aI0
aI0
aaI00
a.(lp0
I87
aI2
aI-1
a(lp1
F4247.79
aF4425.78
aF4262.58
aF4245.75
aF4166.7
aF4522.17
aF4568.58
aF4016.76
aF4282.47
aF4241.16
aF4474.2300000000005
aF4061.13
aF4355.91
aF4377.33
aa(lp2
I0
aI0
aI0
aI0
aI0
aI0
aI0
aI0
aI0
aI0
aI0
aI0
aI0
aI0
aaI00
a.(lp0
I88
aI2
aI-1
a(lp1
F4262.07
aF4439.55
aF4267.17
aF4267.17
aF4174.35
aF4548.18
aF4570.11
aF4026.96
aF4305.93
aF4237.08
aF4479.33
aF3976.98
aF4355.4
aF4372.2300000000005
aa(lp2
I0
aI0
aI0
aI0
aI0
aI0
aI0
aI0
aI0
aI0
aI0
aI0
aI0
aI0
aaI00
a.(lp0
I89
aI2
aI-1
a(lp1
F4439.04
aF4607.85
aF4440.06
aF4334.49
aF4348.77
aF4612.95
aF4577.25
aF4126.92
aF4396.2
aF4404.87
aF4607.85
aF4198.83
aF4547.67
aF4558.89
aa(lp2
I0
aI0
aI0
aI0
aI0
aI0
aI0
aI0
aI0
aI0
aI0
aI0
aI0
aI0
aaI00
a.(lp0
I90
aI2
aI-1
a(lp1
F4482.9
aF4647.63
aF4494.12
aF4340.61
aF4398.75
aF4607.34
aF4579.8
aF4145.79
aF4399.77
aF4457.91
aF4643.04
aF4408.95
aF4615.5
aF4626.21
aa(lp2
I0
aI0
aI0
aI0
aI0
aI0
aI0
aI0
aI0
aI0
aI0
aI0
aI0
aI0
aaI00
a.(lp0
I91
aI2
aI-1
a(lp1
F4293.18
aF4460.97
aF4310.52
aF4272.78
aF4207.5
aF4534.41
aF4571.64
aF4036.65
aF4297.26
aF4272.27
aF4507.89
aF4222.8
aF4417.11
aF4435.47
aa(lp2
I0
aI0
aI0
aI0
aI0
aI0
aI0
aI0
aI0
aI0
aI0
aI0
aI0
aI0
aaI00
a.(lp0
I92
aI2
aI-1
a(lp1
F4165.68
aF4344.6900000000005
aF4177.92
aF4245.24
aF4074.9
aF4511.97
aF4566.54
aF3978.0
aF4252.38
aF4139.67
aF4414.05
aF3902.01
aF4264.11
aF4287.57
aa(lp2
I0
aI0
aI0
aI0
aI0
aI0
aI0
aI0
aI0
aI0
aI0
aI0
aI0
aI0
aaI00
a.(lp0
I93
aI2
aI-1
a(lp1
F4308.4800000000005
aF4491.57
aF4315.11
aF4310.01
aF4224.33
aF4579.8
aF4574.7
aF4064.19
aF4342.14
aF4281.96
aF4512.4800000000005
aF3990.2400000000002
aF4409.97
aF4423.74
aa(lp2
I0
aI0
aI0
aI0
aI0
aI0
aI0
aI0
aI0
aI0
aI0
aI0
aI0
aI0
aaI00
a.(lp0
I94
aI2
aI-1
a(lp1
F4497.6900000000005
aF4666.5
aF4499.7300000000005
aF4367.64
aF4414.05
aF4631.31
aF4583.37
aF4156.5
aF4422.72
aF4469.13
aF4642.53
aF4337.55
aF4619.07
aF4626.21
aa(lp2
I0
aI0
aI0
aI0
aI0
aI0
aI0
aI0
aI0
aI0
aI0
aI0
aI0
aI0
aaI00
a.(lp0
I95
aI2
aI-1
a(lp1
F4440.06
aF4600.2
aF4441.59
aF4336.02
aF4345.2
aF4581.33
aF4575.21
aF4110.6
aF4365.09
aF4405.38
aF4594.59
aF4348.77
aF4557.36
aF4575.72
aa(lp2
I0
aI0
aI0
aI0
aI0
aI0
aI0
aI0
aI0
aI0
aI0
aI0
aI0
aI0
aaI00
a.(lp0
I96
aI2
aI-1
a(lp1
F4202.91
aF4379.88
aF4212.09
aF4265.13
aF4111.62
aF4501.26
aF4565.01
aF3985.14
aF4248.81
aF4172.31
aF4421.7
aF3958.62
aF4297.26
aF4325.31
aa(lp2
I0
aI0
aI0
aI0
aI0
aI0
aI0
aI0
aI0
aI0
aI0
aI0
aI0
aI0
aaI00
a.(lp0
I97
aI2
aI-1
a(lp1
F4147.83
aF4339.59
aF4159.05
aF4274.31
aF4064.7000000000003
aF4519.11
aF4569.09
aF3970.35
aF4252.89
aF4121.31
aF4386.51
aF3778.08
aF4234.02
aF4255.4400000000005
aa(lp2
I0
aI0
aI0
aI0
aI0
aI0
aI0
aI0
aI0
aI0
aI0
aI0
aI0
aI0
aaI00
a.(lp0
I98
aI2
aI-1
a(lp1
F4377.84
aF4553.28
aF4377.84
aF4366.11
aF4280.43
aF4607.85
aF4578.78
aF4098.87
aF4376.31
aF4342.65
aF4554.81
aF4114.17
aF4480.35
aF4486.9800000000005
aa(lp2
I0
aI0
aI0
aI0
aI0
aI0
aI0
aI0
aI0
aI0
aI0
aI0
aI0
aI0
aaI00
a.(lp0
I99
aI2
aI-1
a(lp1
F4524.72
aF4680.78
aF4519.11
aF4402.32
aF4415.07
aF4623.66
aF4578.78
aF4165.17
aF4421.1900000000005
aF4488.0
aF4656.3
aF4459.4400000000005
aF4648.14
aF4646.61
aa(lp2
I0
aI0
aI0
aI0
aI0
aI0
aI0
aI0
aI0
aI0
aI0
aI0
aI0
aI0
aaI00
a.(lp0
I100
aI2
aI-1
a(lp1
F4381.41
aF4545.12
aF4386.51
aF4338.06
aF4287.06
aF4555.32
aF4571.64
aF4080.51
aF4333.47
aF4355.4
aF4554.3
aF4277.88
aF4506.87
aF4509.42
aa(lp2
I0
aI0
aI0
aI0
aI0
aI0
aI0
aI0
aI0
aI0
aI0
aI0
aI0
aI0
aaI00
a.(lp0
I101
aI2
aI-1
a(lp1
F4192.2
aF4372.2300000000005
aF4206.99
aF4278.39
aF4110.6
aF4510.4400000000005
aF4568.07
aF3988.2000000000003
aF4257.4800000000005
aF4169.76
aF4427.82
aF3914.76
aF4301.34
aF4314.09
aa(lp2
I0
aI0
aI0
aI0
aI0
aI0
aI0
aI0
aI0
aI0
aI0
aI0
aI0
aI0
aaI00
a.(lp0
I102
aI2
aI-1
a(lp1
F4224.84
aF4407.42
aF4238.1
aF4305.42
aF4138.14
aF4547.67
aF4573.17
aF4013.7000000000003
aF4295.7300000000005
aF4193.22
aF4455.36
aF3924.96
aF4318.68
aF4335.51
aa(lp2
I0
aI0
aI0
aI0
aI0
aI0
aI0
aI0
aI0
aI0
aI0
aI0
aI0
aI0
aaI00
a.(lp0
I103
aI2
aI-1
a(lp1
F4413.03
aF4587.96
aF4420.68
aF4371.72
aF4328.88
aF4610.91
aF4578.78
aF4113.15
aF4388.04
aF4374.27
aF4588.9800000000005
aF4263.6
aF4513.5
aF4526.25
aa(lp2
I0
aI0
aI0
aI0
aI0
aI0
aI0
aI0
aI0
aI0
aI0
aI0
aI0
aI0
aaI00
a.(lp0
I104
aI2
aI-1
a(lp1
F4461.99
aF4631.82
aF4467.6
aF4371.72
aF4385.49
aF4604.28
aF4576.74
aF4134.57
aF4392.12
aF4429.86
aF4623.15
aF4405.38
aF4576.74
aF4587.96
aa(lp2
I0
aI0
aI0
aI0
aI0
aI0
aI0
aI0
aI0
aI0
aI0
aI0
aI0
aI0
aaI00
a.(lp0
I105
aI2
aI-1
a(lp1
F4316.64
aF4488.0
aF4323.27
aF4314.6
aF4237.08
aF4544.61
aF4570.11
aF4053.48
aF4310.52
aF4290.63
aF4514.52
aF4203.93
aF4422.72
aF4437.0
aa(lp2
I0
aI0
aI0
aI0
aI0
aI0
aI0
aI0
aI0
aI0
aI0
aI0
aI0
aI0
aaI00
a.(lp0
I106
aI2
aI-1
a(lp1
F4229.9400000000005
aF4409.97
aF4236.57
aF4296.24
aF4149.36
aF4531.35
aF4570.62
aF4011.66
aF4283.49
aF4203.42
aF4449.24
aF4065.7200000000003
aF4323.78
aF4335.51
aa(lp2
I0
aI0
aI0
aI0
aI0
aI0
aI0
aI0
aI0
aI0
aI0
aI0
aI0
aI0
aaI00
a.(lp0
I107
aI2
aI-1
a(lp1
F4337.04
aF4521.15
aF4340.1
aF4343.16
aF4255.4400000000005
aF4581.84
aF4575.21
aF4074.39
aF4350.3
aF4310.01
aF4529.82
aF4211.07
aF4442.61
aF4445.67
aa(lp2
I0
aI0
aI0
aI0
aI0
aI0
aI0
aI0
aI0
aI0
aI0
aI0
aI0
aI0
aaI00
a.(lp0
I108
aI2
aI-1
a(lp1
F4451.79
aF4625.7
aF4449.24
aF4376.31
aF4363.56
aF4608.36
aF4577.76
aF4128.96
aF4395.6900000000005
aF4424.25
aF4613.97
aF4401.81
aF4571.64
aF4577.76
aa(lp2
I0
aI0
aI0
aI0
aI0
aI0
aI0
aI0
aI0
aI0
aI0
aI0
aI0
aI0
aaI00
a.(lp0
I109
aI2
aI-1
a(lp1
F4363.05
aF4532.88
aF4363.56
aF4333.9800000000005
aF4282.47
aF4563.4800000000005
aF4573.68
aF4074.9
aF4338.06
aF4336.53
aF4548.18
aF4299.81
aF4477.29
aF4492.59
aa(lp2
I0
aI0
aI0
aI0
aI0
aI0
aI0
aI0
aI0
aI0
aI0
aI0
aI0
aI0
aaI00
a.(lp0
I110
aI2
aI-1
a(lp1
F4210.56
aF4393.65
aF4220.25
aF4284.51
aF4142.22
aF4521.15
aF4566.03
aF4000.44
aF4271.76
aF4188.12
aF4441.59
aF4002.9900000000002
aF4315.11
aF4328.37
aa(lp2
I0
aI0
aI0
aI0
aI0
aI0
aI0
aI0
aI0
aI0
aI0
aI0
aI0
aI0
aaI00
a.(lp0
I111
aI2
aI-1
a(lp1
F4264.11
aF4447.71
aF4270.74
aF4319.1900000000005
aF4179.96
aF4554.81
aF4568.58
aF4035.63
aF4312.05
aF4239.63
aF4476.27
aF3939.2400000000002
aF4366.11
aF4372.74
aa(lp2
I0
aI0
aI0
aI0
aI0
aI0
aI0
aI0
aI0
aI0
aI0
aI0
aI0
aI0
aaI00
a.(lp0
I112
aI2
aI-1
a(lp1
F4451.79
aF4614.4800000000005
aF4448.7300000000005
aF4390.59
aF4348.26
aF4611.42
aF4579.29
aF4132.02
aF4401.3
aF4421.7
aF4603.77
aF4208.52
aF4561.95
aF4564.5
aa(lp2
I0
aI0
aI0
aI0
aI0
aI0
aI0
aI0
aI0
aI0
aI0
aI0
aI0
aI0
aaI00
a.(lp0
I113
aI2
aI-1
a(lp1
F4466.58
aF4622.64
aF4470.66
aF4382.43
aF4373.76
aF4594.59
aF4576.2300000000005
aF4133.04
aF4391.61
aF4446.18
aF4620.6
aF4407.42
aF4590.0
aF4597.14
aa(lp2
I0
aI0
aI0
aI0
aI0
aI0
aI0
aI0
aI0
aI0
aI0
aI0
aI0
aI0
aaI00
a.(lp0
I114
aI2
aI-1
a(lp1
F4259.52
aF4429.86
aF4272.78
aF4300.32
aF4176.9
aF4519.11
aF4562.46
aF4020.84
aF4281.96
aF4243.2
aF4474.74
aF4136.1
aF4371.72
aF4391.1
aa(lp2
I0
aI0
aI0
aI0
aI0
aI0
aI0
aI0
aI0
aI0
aI0
aI0
aI0
aI0
aaI00
a.(lp0
I115
aI2
aI-1
a(lp1
F4151.4
aF4336.53
aF4160.07
aF4279.92
aF4061.64
aF4506.36
aF4562.46
aF3968.82
aF4247.28
aF4123.86
aF4390.59
aF3838.26
aF4240.14
aF4261.05
aa(lp2
I0
aI0
aI0
aI0
aI0
aI0
aI0
aI0
aI0
aI0
aI0
aI0
aI0
aI0
aaI00
a.(lp0
I116
aI2
aI0
a(lp1
F4321.2300000000005
aF4506.87
aF4329.39
aF4357.95
aF4234.53
aF4583.88
aF4575.72
aF4068.27
aF4350.81
aF4295.22
aF4511.97
aF4034.1
aF4419.15
aF4426.8
aa(lp2
I0
aI0
aI0
aI0
aI0
aI0
aI0
aI0
aI0
aI0
aI0
aI0
aI0
aI0
aaI00
a.(lp0
I117
aI2
aI0
a(lp1
F4500.24
aF4672.62
aF4509.93
aF4408.4400000000005
aF4422.72
aF4628.25
aF4583.88
aF4162.62
aF4425.78
aF4483.41
aF4643.55
aF4340.61
aF4618.05
aF4626.21
aa(lp2
I0
aI0
aI0
aI0
aI0
aI0
aI0
aI0
aI0
aI0
aI0
aI0
aI0
aI0
aaI00
a.(lp0
I118
aI2
aI0
a(lp1
F4411.5
aF4577.25
aF4416.09
aF4355.91
aF4332.96
aF4571.64
aF4574.7
aF4101.93
aF4353.36
aF4393.14
aF4579.8
aF4237.59
aF4525.74
aF4545.12
aa(lp2
I0
aI0
aI0
aI0
aI0
aI0
aI0
aI0
aI0
aI0
aI0
aI0
aI0
aI0
aaI00
a.(lp0
I119
aI2
aI0
a(lp1
F4177.41
aF4356.42
aF4186.59
aF4279.41
aF4096.32
aF4496.16
aF4562.46
aF3974.94
aF4240.65
aF4160.07
aF4407.42
aF3895.89
aF4275.33
aF4294.71
aa(lp2
I0
aI0
aI0
aI0
aI0
aI0
aI0
aI0
aI0
aI0
aI0
aI0
aI0
aI0
aaI00
a.(lp0
I120
aI2
aI-1
a(lp1
F4153.95
aF4345.2
aF4166.1900000000005
aF4293.18
aF4070.31
aF4518.6
aF4568.58
aF3974.4300000000003
aF4260.03
aF4131.51
aF4386.0
aF3804.6
aF4238.61
aF4256.97
aa(lp2
I0
aI0
aI0
aI0
aI0
aI0
aI0
aI0
aI0
aI0
aI0
aI0
aI0
aI0
aaI00
a.(lp0
I121
aI2
aI-1
a(lp1
F4392.12
aF4573.17
aF4392.12
aF4382.43
aF4303.89
aF4609.89
aF4583.37
aF4104.99
aF4384.9800000000005
aF4356.42
aF4552.77
aF4142.22
aF4483.41
aF4501.77
aa(lp2
I0
aI0
aI0
aI0
aI0
aI0
aI0
aI0
aI0
aI0
aI0
aI0
aI0
aI0
aaI00
a.(lp0
I122
aI2
aI-1
a(lp1
F4515.03
aF4681.29
aF4511.97
aF4408.95
aF4427.82
aF4623.66
aF4582.35
aF4161.09
aF4420.68
aF4486.47
aF4637.9400000000005
aF4456.89
aF4627.74
aF4641.51
aa(lp2
I0
aI0
aI0
aI0
aI0
aI0
aI0
aI0
aI0
aI0
aI0
aI0
aI0
aI0
aaI00
a.(lp0
I126
aI2
aI-1
a(lp1
F4416.6
aF4594.59
aF4426.8
aF4389.57
aF4326.84
aF4599.18
aF4578.78
aF4114.17
aF4388.04
aF4377.84
aF4575.21
aF4252.38
aF4522.17
aF4528.29
aa(lp2
I0
aI0
aI0
aI0
aI0
aI0
aI0
aI0
aI0
aI0
aI0
aI0
aI0
aI0
aaI00
a.(lp0
I0
aI2
aI-1
a(lp1
F4239.63
aF4415.58
aF4252.89
aF4328.37
aF4146.81
aF4534.92
aF4569.09
aF4015.7400000000002
aF4290.63
aF4211.07
aF4443.63
aF3972.9
aF4337.04
aF4354.89
aa(lp2
I0
aI0
aI0
aI0
aI0
aI0
aI0
aI0
aI0
aI0
aI0
aI0
aI0
aI0
aaI00
a.(lp0
I3
aI2
aI0
a(lp1
F4329.39
aF4494.12
aF4345.71
aF4346.22
aF4236.06
aF4547.67
aF4571.64
aF4059.09
aF4317.15
aF4298.79
aF4522.68
aF4241.67
aF4441.08
aF4459.4400000000005
aa(lp2
I0
aI0
aI0
aI0
aI0
aI0
aI0
aI0
aI0
aI0
aI0
aI0
aI0
aI0
aaI00
a.(lp0
I7
aI2
aI-1
a(lp1
F4459.95
aF4617.54
aF4472.7
aF4393.65
aF4362.54
aF4591.02
aF4579.29
aF4126.92
aF4379.37
aF4419.66
aF4597.65
aF4335.0
aF4574.7
aF4581.84
aa(lp2
I0
aI0
aI0
aI0
aI0
aI0
aI0
aI0
aI0
aI0
aI0
aI0
aI0
aI0
aaI00
a.(lp0
I10
aI2
aI-1
a(lp1
F4339.08
aF4519.11
aF4365.09
aF4376.82
aF4245.75
aF4589.49
aF4577.25
aF4075.92
aF4358.97
aF4289.61
aF4526.25
aF4037.67
aF4447.2
aF4442.61
aa(lp2
I0
aI0
aI0
aI0
aI0
aI0
aI0
aI0
aI0
aI0
aI0
aI0
aI0
aI0
aaI00
a.(lp0
I14
aI2
aI-1
a(lp1
F4180.9800000000005
aF4358.46
aF4201.89
aF4321.2300000000005
aF4072.35
aF4520.13
aF4566.03
aF3983.61
aF4271.76
aF4130.49
aF4407.93
aF3810.7200000000003
aF4265.64
aF4268.1900000000005
aa(lp2
I0
aI0
aI0
aI0
aI0
aI0
aI0
aI0
aI0
aI0
aI0
aI0
aI0
aI0
aaI00
a.(lp0
I17
aI2
aI-1
a(lp1
F4333.9800000000005
aF4510.95
aF4371.21
aF4365.09
aF4251.36
aF4544.1
aF4569.6
aF4066.23
aF4322.76
aF4302.36
aF4535.9400000000005
aF4300.32
aF4459.95
aF4463.01
aa(lp2
I0
aI0
aI0
aI0
aI0
aI0
aI0
aI0
aI0
aI0
aI0
aI0
aI0
aI0
aaI00
a.(lp0
I20
aI2
aI-1
a(lp1
F4428.84
aF4592.55
aF4447.2
aF4417.62
aF4319.7
aF4597.65
aF4578.27
aF4116.72
aF4390.08
aF4380.39
aF4592.04
aF4282.9800000000005
aF4526.76
aF4533.39
aa(lp2
I0
aI0
aI0
aI0
aI0
aI0
aI0
aI0
aI0
aI0
aI0
aI0
aI0
aI0
aaI00
a.(lp0
I24
aI2
aI-1
a(lp1
F4398.24
aF4577.76
aF4419.66
aF4418.13
aF4299.3
aF4593.06
aF4576.74
aF4106.01
aF4378.35
aF4349.28
aF4567.05
aF4203.42
aF4496.67
aF4493.61
aa(lp2
I0
aI0
aI0
aI0
aI0
aI0
aI0
aI0
aI0
aI0
aI0
aI0
aI0
aI0
aaI00
a.(lp0
I27
aI2
aI-1
a(lp1
F4160.58
aF4348.77
aF4187.61
aF4329.39
aF4065.7200000000003
aF4501.77
aF4566.03
aF3972.9
aF4253.4
aF4128.96
aF4409.46
aF3876.51
aF4260.54
aF4270.2300000000005
aa(lp2
I0
aI0
aI0
aI0
aI0
aI0
aI0
aI0
aI0
aI0
aI0
aI0
aI0
aI0
aaI00
a.(lp0
I31
aI2
aI-1
a(lp1
F4203.42
aF4378.35
aF4226.88
aF4333.9800000000005
aF4101.42
aF4496.16
aF4562.97
aF3989.73
aF4257.4800000000005
aF4171.29
aF4434.96
aF4007.07
aF4304.91
aF4319.1900000000005
aa(lp2
I0
aI0
aI0
aI0
aI0
aI0
aI0
aI0
aI0
aI0
aI0
aI0
aI0
aI0
aaI00
a.(lp0
I34
aI2
aI-1
a(lp1
F4518.6
aF4681.8
aF4525.2300000000005
aF4464.03
aF4421.7
aF4617.54
aF4580.31
aF4161.6
aF4426.8
aF4461.99
aF4661.91
aF4447.2
aF4623.66
aF4619.07
aa(lp2
I0
aI0
aI0
aI0
aI0
aI0
aI0
aI0
aI0
aI0
aI0
aI0
aI0
aI0
aaI00
a.(lp0
I38
aI2
aI-1
a(lp1
F4401.3
aF4578.78
aF4412.01
aF4428.33
aF4298.79
aF4598.67
aF4580.31
aF4106.52
aF4383.45
aF4345.71
aF4578.27
aF4219.2300000000005
aF4502.28
aF4486.47
aa(lp2
I0
aI0
aI0
aI0
aI0
aI0
aI0
aI0
aI0
aI0
aI0
aI0
aI0
aI0
aaI00
a.(lp0
I41
aI2
aI-1
a(lp1
F4224.84
aF4390.08
aF4231.9800000000005
aF4351.83
aF4104.4800000000005
aF4509.93
aF4568.58
aF3998.91
aF4273.8
aF4165.17
aF4434.96
aF4017.27
aF4325.82
aF4313.58
aa(lp2
I0
aI0
aI0
aI0
aI0
aI0
aI0
aI0
aI0
aI0
aI0
aI0
aI0
aI0
aaI00
a.(lp0
I45
aI2
aI-1
a(lp1
F4231.9800000000005
aF4403.85
aF4261.05
aF4353.87
aF4115.1900000000005
aF4508.91
aF4566.54
aF4008.09
aF4277.37
aF4186.59
aF4459.4400000000005
aF4031.55
aF4347.24
aF4333.9800000000005
aa(lp2
I0
aI0
aI0
aI0
aI0
aI0
aI0
aI0
aI0
aI0
aI0
aI0
aI0
aI0
aaI00
a.(lp0
I48
aI2
aI0
a(lp1
F4475.76
aF4630.8
aF4492.08
aF4439.55
aF4365.6
aF4588.9800000000005
aF4577.76
aF4135.59
aF4395.6900000000005
aF4420.68
aF4626.21
aF4430.88
aF4606.32
aF4590.0
aa(lp2
I0
aI0
aI0
aI0
aI0
aI0
aI0
aI0
aI0
aI0
aI0
aI0
aI0
aI0
aaI00
a.(lp0
I51
aI2
aI-1
a(lp1
F4304.91
aF4481.37
aF4327.86
aF4397.7300000000005
aF4200.36
aF4568.58
aF4572.66
aF4060.11
aF4342.65
aF4262.07
aF4503.81
aF3995.85
aF4405.89
aF4393.65
aa(lp2
I0
aI0
aI0
aI0
aI0
aI0
aI0
aI0
aI0
aI0
aI0
aI0
aI0
aI0
aaI00
a.(lp0
I55
aI2
aI-1
a(lp1
F4138.65
aF4334.49
aF4172.31
aF4330.41
aF4050.9300000000003
aF4503.81
aF4566.03
aF3963.21
aF4249.83
aF4070.31
aF4369.17
aF3751.56
aF4204.4400000000005
aF4223.31
aa(lp2
I0
aI0
aI0
aI0
aI0
aI0
aI0
aI0
aI0
aI0
aI0
aI0
aI0
aI0
aaI00
a.(lp0
I58
aI2
aI-1
a(lp1
F4373.25
aF4531.35
aF4397.22
aF4388.55
aF4273.8
aF4542.06
aF4571.64
aF4074.39
aF4330.41
aF4323.78
aF4546.65
aF4260.54
aF4487.49
aF4474.74
aa(lp2
I0
aI0
aI0
aI0
aI0
aI0
aI0
aI0
aI0
aI0
aI0
aI0
aI0
aI0
aaI00
a.(lp0
I62
aI2
aI-1
a(lp1
F4449.24
aF4608.36
aF4475.76
aF4420.68
aF4343.67
aF4582.35
aF4576.2300000000005
aF4125.39
aF4384.47
aF4390.59
aF4610.4
aF4393.14
aF4571.64
aF4552.26
aa(lp2
I0
aI0
aI0
aI0
aI0
aI0
aI0
aI0
aI0
aI0
aI0
aI0
aI0
aI0
aaI00
a.(lp0
I52
aI2
aI-1
a(lp1
F4414.56
aF4575.72
aF4498.71
aF4345.71
aF4338.57
aF4558.89
aF4571.64
aF4105.5
aF4364.58
aF4386.51
aF4631.31
aF4280.9400000000005
aF4537.47
aF4548.6900000000005
aa(lp2
I0
aI0
aI0
aI0
aI0
aI0
aI0
aI0
aI0
aI0
aI0
aI0
aI0
aI0
aaI00
a.(lp0
I94
aI2
aI-1
a(lp1
F4238.1
aF4395.18
aF4323.27
aF4256.97
aF4146.81
aF4478.31
aF4563.99
aF4006.05
aF4267.17
aF4189.14
aF4519.62
aF4091.2200000000003
aF4337.55
aF4338.57
aa(lp2
I0
aI0
aI0
aI0
aI0
aI0
aI0
aI0
aI0
aI0
aI0
aI0
aI0
aI0
aaI00
a.(lp0
I8
aI2
aI-1
a(lp1
F4247.79
aF4433.9400000000005
aF4345.71
aF4296.75
aF4177.41
aF4514.52
aF4570.11
aF4035.63
aF4318.68
aF4236.06
aF4548.18
aF3984.63
aF4350.81
aF4363.05
aa(lp2
I0
aI0
aI0
aI0
aI0
aI0
aI0
aI0
aI0
aI0
aI0
aI0
aI0
aI0
aaI00
a.(lp0
I53
aI2
aI-1
a(lp1
F4099.38
aF4293.18
aF4217.1900000000005
aF4257.99
aF4032.57
aF4427.31
aF4558.89
aF3956.58
aF4237.08
aF4141.71
aF4448.22
aF3823.4700000000003
aF4195.77
aF4218.72
aa(lp2
I0
aI0
aI0
aI0
aI0
aI0
aI0
aI0
aI0
aI0
aI0
aI0
aI0
aI0
aaI00
a.(lp0
I101
aI2
aI-1
a(lp1
F4468.62
aF4649.16
aF4587.45
aF4398.75
aF4405.38
aF4552.26
aF4575.72
aF4159.05
aF4418.13
aF4515.03
aF4712.91
aF4434.96
aF4603.26
aF4604.79
aa(lp2
I0
aI0
aI0
aI0
aI0
aI0
aI0
aI0
aI0
aI0
aI0
aI0
aI0
aI0
aaI00
a.(lp0
I21
aI2
aI-1
a(lp1
F4168.2300000000005
aF4374.78
aF4305.93
aF4310.52
aF4121.31
aF4467.6
aF4560.93
aF4000.9500000000003
aF4287.06
aF4211.07
aF4498.2
aF3975.96
aF4289.61
aF4301.85
aa(lp2
I0
aI0
aI0
aI0
aI0
aI0
aI0
aI0
aI0
aI0
aI0
aI0
aI0
aI0
aaI00
a.(lp0
I30
aI2
aI-1
a(lp1
F4219.74
aF4421.7
aF4362.03
aF4325.82
aF4169.76
aF4481.37
aF4568.07
aF4026.96
aF4312.56
aF4243.71
aF4527.27
aF3983.61
aF4332.96
aF4351.32
aa(lp2
I0
aI0
aI0
aI0
aI0
aI0
aI0
aI0
aI0
aI0
aI0
aI0
aI0
aI0
aaI00
a.(lp0
I35
aI2
aI-1
a(lp1
F4273.29
aF4472.1900000000005
aF4419.15
aF4362.03
aF4221.27
aF4510.4400000000005
aF4571.13
aF4059.09
aF4343.16
aF4292.16
aF4572.15
aF4026.96
aF4389.06
aF4404.36
aa(lp2
I0
aI0
aI0
aI0
aI0
aI0
aI0
aI0
aI0
aI0
aI0
aI0
aI0
aI0
aaI00
a.(lp0
I41
aI2
aI-1
a(lp1
F4433.9400000000005
aF4616.01
aF4579.8
aF4400.28
aF4385.49
aF4537.47
aF4573.68
aF4135.08
aF4399.26
aF4446.6900000000005
aF4685.37
aF4445.16
aF4572.15
aF4577.76
aa(lp2
I0
aI0
aI0
aI0
aI0
aI0
aI0
aI0
aI0
aI0
aI0
aI0
aI0
aI0
aaI00
a.(lp0
I47
aI2
aI-1
a(lp1
F4187.1
aF4397.22
aF4363.56
aF4314.6
aF4162.62
aF4454.85
aF4558.89
aF4013.19
aF4280.43
aF4233.51
aF4530.84
aF4111.11
aF4342.14
aF4358.46
aa(lp2
I0
aI0
aI0
aI0
aI0
aI0
aI0
aI0
aI0
aI0
aI0
aI0
aI0
aI0
aaI00
a.(lp0
I53
aI2
aI-1
a(lp1
F4205.97
aF4438.02
aF4381.92
aF4343.16
aF4180.47
aF4491.57
aF4567.56
aF4034.61
aF4320.21
aF4245.24
aF4546.14
aF4005.54
aF4351.83
aF4357.4400000000005
aa(lp2
I0
aI0
aI0
aI0
aI0
aI0
aI0
aI0
aI0
aI0
aI0
aI0
aI0
aI0
aaI00
a.(lp0
I59
aI2
aI-1
a(lp1
F4431.39
aF4646.61
aF4604.79
aF4415.58
aF4411.5
aF4553.28
aF4575.72
aF4151.91
aF4414.56
aF4466.58
aF4708.83
aF4448.7300000000005
aF4602.24
aF4609.89
aa(lp2
I0
aI0
aI0
aI0
aI0
aI0
aI0
aI0
aI0
aI0
aI0
aI0
aI0
aI0
aaI00
a.(lp0
I92
aI2
aI-1
a(lp1
F4251.87
aF4494.63
aF4436.49
aF4364.58
aF4247.79
aF4477.29
aF4562.46
aF4060.62
aF4321.74
aF4301.85
aF4585.92
aF4291.65
aF4432.92
aF4453.32
aa(lp2
I0
aI0
aI0
aI0
aI0
aI0
aI0
aI0
aI0
aI0
aI0
aI0
aI0
aI0
aaI00
a.(lp0
I98
aI2
aI-1
a(lp1
F4027.98
aF4294.2
aF4233.51
aF4311.03
aF4037.16
aF4428.84
aF4557.36
aF3947.4
aF4233.51
aF4090.71
aF4423.74
aF3854.07
aF4193.7300000000005
aF4210.05
aa(lp2
I0
aI0
aI0
aI0
aI0
aI0
aI0
aI0
aI0
aI0
aI0
aI0
aI0
aI0
aaI00
a.(lp0
I104
aI2
aI-1
a(lp1
F4267.68
aF4526.76
aF4468.62
aF4416.09
aF4268.1900000000005
aF4528.29
aF4569.09
aF4083.57
aF4369.17
aF4333.47
aF4608.36
aF4150.38
aF4455.87
aF4438.53
aa(lp2
I0
aI0
aI0
aI0
aI0
aI0
aI0
aI0
aI0
aI0
aI0
aI0
aI0
aI0
aaI00
a.(lp0
I110
aI2
aI-1
a(lp1
F4318.17
aF4563.4800000000005
aF4516.56
aF4412.01
aF4322.76
aF4512.4800000000005
aF4567.56
aF4102.95
aF4363.05
aF4364.58
aF4635.9
aF4411.5
aF4526.76
aF4520.64
aa(lp2
I0
aI0
aI0
aI0
aI0
aI0
aI0
aI0
aI0
aI0
aI0
aI0
aI0
aI0
aaI00
a.(lp0
I116
aI2
aI-1
a(lp1
F4078.4700000000003
aF4336.53
aF4279.41
aF4335.0
aF4074.9
aF4431.9
aF4556.34
aF3973.92
aF4248.81
aF4132.53
aF4461.99
aF3939.75
aF4256.46
aF4266.66
aa(lp2
I0
aI0
aI0
aI0
aI0
aI0
aI0
aI0
aI0
aI0
aI0
aI0
aI0
aI0
aaI00
a.(lp0
I122
aI2
aI-1
a(lp1
F4233.0
aF4491.06
aF4430.88
aF4407.93
aF4224.33
aF4517.58
aF4571.64
aF4066.7400000000002
aF4348.77
aF4261.05
aF4574.1900000000005
aF4061.13
aF4415.58
aF4412.01
aa(lp2
I0
aI0
aI0
aI0
aI0
aI0
aI0
aI0
aI0
aI0
aI0
aI0
aI0
aI0
aaI00
a.(lp0
I128
aI2
aI-1
a(lp1
F4385.49
aF4630.8
aF4576.74
aF4447.2
aF4380.39
aF4534.92
aF4574.7
aF4137.63
aF4394.16
aF4430.88
aF4680.78
aF4483.92
aF4590.51
aF4583.37
aa(lp2
I0
aI0
aI0
aI0
aI0
aI0
aI0
aI0
aI0
aI0
aI0
aI0
aI0
aI0
aaI00
a.(lp0
I5
aI2
aI-1
a(lp1
F4151.91
aF4417.11
aF4354.38
aF4366.11
aF4145.79
aF4454.34
aF4557.87
aF4013.7000000000003
aF4275.33
aF4203.42
aF4516.05
aF4109.58
aF4342.65
aF4355.91
aa(lp2
I0
aI0
aI0
aI0
aI0
aI0
aI0
aI0
aI0
aI0
aI0
aI0
aI0
aI0
aaI00
a.(lp0
I39
aI2
aI-1
a(lp1
F4259.01
aF4523.1900000000005
aF4435.9800000000005
aF4440.57
aF4252.38
aF4524.21
aF4569.09
aF4080.0
aF4357.95
aF4293.18
aF4586.9400000000005
aF4112.13
aF4437.0
aF4441.08
aa(lp2
I0
aI0
aI0
aI0
aI0
aI0
aI0
aI0
aI0
aI0
aI0
aI0
aI0
aI0
aaI00
a.(lp0
I46
aI2
aI-1
a(lp1
F4208.01
aF4454.85
aF4382.9400000000005
aF4392.12
aF4196.79
aF4459.95
aF4561.4400000000005
aF4036.65
aF4295.7300000000005
aF4252.89
aF4547.16
aF4204.4400000000005
aF4394.16
aF4412.01
aa(lp2
I0
aI0
aI0
aI0
aI0
aI0
aI0
aI0
aI0
aI0
aI0
aI0
aI0
aI0
aaI00
a.(lp0
I52
aI2
aI-1
a(lp1
F4168.74
aF4429.35
aF4338.57
aF4398.75
aF4163.13
aF4479.84
aF4561.95
aF4021.35
aF4303.89
aF4207.5
aF4512.4800000000005
aF3980.55
aF4339.59
aF4346.7300000000005
aa(lp2
I0
aI0
aI0
aI0
aI0
aI0
aI0
aI0
aI0
aI0
aI0
aI0
aI0
aI0
aaI00
a.(lp0
I58
aI2
aI-1
a(lp1
F4407.42
aF4652.7300000000005
aF4575.72
aF4476.78
aF4415.07
aF4550.7300000000005
aF4570.11
aF4148.34
aF4410.99
aF4448.22
aF4689.45
aF4378.86
aF4601.7300000000005
aF4599.18
aa(lp2
I0
aI0
aI0
aI0
aI0
aI0
aI0
aI0
aI0
aI0
aI0
aI0
aI0
aI0
aaI00
a.(lp0
I121
aI2
aI-1
a(lp1
F4228.41
aF4452.81
aF4377.33
aF4423.2300000000005
aF4224.84
aF4502.79
aF4564.5
aF4051.9500000000003
aF4329.9
aF4251.36
aF4536.45
aF4018.8
aF4376.82
aF4387.02
aa(lp2
I0
aI0
aI0
aI0
aI0
aI0
aI0
aI0
aI0
aI0
aI0
aI0
aI0
aI0
aaI00
a.(lp0
I127
aI2
aI-1
a(lp1
F4434.96
aF4648.65
aF4588.47
aF4476.78
aF4441.59
aF4547.67
aF4574.7
aF4151.91
aF4407.93
aF4447.71
aF4674.66
aF4486.47
aF4591.02
aF4618.05
aa(lp2
I0
aI0
aI0
aI0
aI0
aI0
aI0
aI0
aI0
aI0
aI0
aI0
aI0
aI0
aaI00
a.(lp0
I4
aI2
aI-1
a(lp1
F4232.49
aF4441.59
aF4374.27
aF4394.16
aF4221.27
aF4457.91
aF4557.87
aF4036.65
aF4296.24
aF4259.52
aF4528.8
aF4201.38
aF4383.96
aF4410.4800000000005
aa(lp2
I0
aI0
aI0
aI0
aI0
aI0
aI0
aI0
aI0
aI0
aI0
aI0
aI0
aI0
aaI00
a.(lp0
I10
aI2
aI-1
a(lp1
F4193.7300000000005
aF4421.1900000000005
aF4337.55
aF4398.24
aF4191.6900000000005
aF4476.27
aF4563.4800000000005
aF4026.96
aF4300.32
aF4211.07
aF4503.3
aF3999.42
aF4333.47
aF4350.81
aa(lp2
I0
aI0
aI0
aI0
aI0
aI0
aI0
aI0
aI0
aI0
aI0
aI0
aI0
aI0
aaI00
a.(lp0
I47
aI2
aI-1
a(lp1
F4219.2300000000005
aF4435.9800000000005
aF4348.26
aF4351.32
aF4212.6
aF4480.35
aF4562.46
aF4035.12
aF4304.91
aF4245.24
aF4520.13
aF4088.16
aF4364.07
aF4371.21
aa(lp2
I0
aI0
aI0
aI0
aI0
aI0
aI0
aI0
aI0
aI0
aI0
aI0
aI0
aI0
aaI00
a.(lp0
I52
aI2
aI-1
a(lp1
F4346.7300000000005
aF4560.42
aF4470.66
aF4393.65
aF4350.3
aF4523.7
aF4569.6
aF4102.4400000000005
aF4367.64
aF4367.13
aF4599.18
aF4170.78
aF4501.26
aF4503.81
aa(lp2
I0
aI0
aI0
aI0
aI0
aI0
aI0
aI0
aI0
aI0
aI0
aI0
aI0
aI0
aaI00
a.(lp0
I58
aI2
aI-1
a(lp1
F4376.31
aF4557.36
aF4501.77
aF4384.47
aF4362.54
aF4493.61
aF4566.54
aF4102.95
aF4350.81
aF4400.79
aF4619.58
aF4370.7
aF4539.51
aF4542.06
aa(lp2
I0
aI0
aI0
aI0
aI0
aI0
aI0
aI0
aI0
aI0
aI0
aI0
aI0
aI0
aaI00
a.(lp0
I64
aI2
aI-1
a(lp1
F4142.7300000000005
aF4347.75
aF4273.8
aF4107.54
aF4140.18
aF4422.21
aF4555.32
aF3967.8
aF4234.02
aF4164.66
aF4447.2
aF3910.17
aF4285.53
aF4302.36
aa(lp2
I0
aI0
aI0
aI0
aI0
aI0
aI0
aI0
aI0
aI0
aI0
aI0
aI0
aI0
aaI00
a.(lp0
I71
aI2
aI-1
a(lp1
F4388.04
aF4588.9800000000005
aF4515.54
aF4214.64
aF4386.0
aF4520.64
aF4563.99
aF4108.56
aF4371.21
aF4415.58
aF4629.27
aF4400.79
aF4551.24
aF4557.36
aa(lp2
I0
aI0
aI0
aI0
aI0
aI0
aI0
aI0
aI0
aI0
aI0
aI0
aI0
aI0
aaI00
a.(lp0
I76
aI2
aI-1
a(lp1
F4426.8
aF4617.03
aF4547.16
aF4219.2300000000005
aF4422.21
aF4518.6
aF4569.6
aF4120.29
aF4373.76
aF4445.16
aF4644.06
aF4388.04
aF4588.9800000000005
aF4600.2
aa(lp2
I0
aI0
aI0
aI0
aI0
aI0
aI0
aI0
aI0
aI0
aI0
aI0
aI0
aI0
aaI00
a.(lp0
I82
aI2
aI-1
a(lp1
F4133.04
aF4335.51
aF4260.03
aF4104.99
aF4125.39
aF4411.5
aF4551.75
aF3957.6
aF4223.82
aF4153.4400000000005
aF4436.49
aF3931.08
aF4282.47
aF4297.77
aa(lp2
I0
aI0
aI0
aI0
aI0
aI0
aI0
aI0
aI0
aI0
aI0
aI0
aI0
aI0
aaI00
a.(lp0
I88
aI2
aI-1
a(lp1
F4180.47
aF4400.28
aF4312.05
aF4148.85
aF4177.41
aF4462.5
aF4560.42
aF3999.9300000000003
aF4276.86
aF4194.24
aF4475.76
aF3943.32
aF4320.72
aF4332.96
aa(lp2
I0
aI0
aI0
aI0
aI0
aI0
aI0
aI0
aI0
aI0
aI0
aI0
aI0
aI0
aaI00
a.(lp0
I127
aI2
aI-1
a(lp1
F4353.87
aF4540.53
aF4452.3
aF4255.4400000000005
aF4335.0
aF4481.88
aF4558.38
aF4076.4300000000003
aF4328.37
aF4378.35
aF4581.84
aF4296.24
aF4504.32
aF4523.1900000000005
aa(lp2
I0
aI0
aI0
aI0
aI0
aI0
aI0
aI0
aI0
aI0
aI0
aI0
aI0
aI0
aaI00
a.(lp0
I4
aI2
aI-1
a(lp1
F4171.8
aF4375.8
aF4266.15
aF4209.03
aF4157.01
aF4445.16
aF4558.38
aF3982.08
aF4255.95
aF4199.34
aF4453.83
aF4010.64
aF4302.36
aF4312.05
aa(lp2
I0
aI0
aI0
aI0
aI0
aI0
aI0
aI0
aI0
aI0
aI0
aI0
aI0
aI0
aaI00
a.(lp0
I9
aI2
aI-1
a(lp1
F4217.1900000000005
aF4421.1900000000005
aF4310.01
aF4251.36
aF4195.77
aF4469.13
aF4555.32
aF4009.11
aF4288.08
aF4220.76
aF4480.86
aF3970.86
aF4336.02
aF4350.3
aa(lp2
I0
aI0
aI0
aI0
aI0
aI0
aI0
aI0
aI0
aI0
aI0
aI0
aI0
aI0
aaI00
a.(lp0
I16
aI2
aI-1
a(lp1
F4388.04
aF4570.11
aF4483.92
aF4299.3
aF4351.32
aF4493.1
aF4560.42
aF4095.81
aF4347.24
aF4396.71
aF4608.36
aF4375.29
aF4542.57
aF4556.85
aa(lp2
I0
aI0
aI0
aI0
aI0
aI0
aI0
aI0
aI0
aI0
aI0
aI0
aI0
aI0
aaI00
a.(lp0
I22
aI2
aI-1
a(lp1
F4140.6900000000005
aF4347.75
aF4237.08
aF4227.9
aF4124.37
aF4424.76
aF4555.32
aF3966.27
aF4237.59
aF4165.68
aF4427.82
aF3919.35
aF4276.86
aF4284.0
aa(lp2
I0
aI0
aI0
aI0
aI0
aI0
aI0
aI0
aI0
aI0
aI0
aI0
aI0
aI0
aaI00
a.(lp0
I28
aI2
aI-1
a(lp1
F4274.82
aF4473.21
aF4368.15
aF4296.75
aF4243.2
aF4490.55
aF4561.95
aF4044.81
aF4320.72
aF4274.82
aF4527.78
aF4143.24
aF4416.09
aF4418.64
aa(lp2
I0
aI0
aI0
aI0
aI0
aI0
aI0
aI0
aI0
aI0
aI0
aI0
aI0
aI0
aaI00
a.(lp0
I34
aI2
aI-1
a(lp1
F4416.09
aF4604.79
aF4516.56
aF4347.75
aF4389.06
aF4517.58
aF4563.99
aF4120.29
aF4374.27
aF4442.61
aF4633.35
aF4391.61
aF4573.17
aF4575.21
aa(lp2
I0
aI0
aI0
aI0
aI0
aI0
aI0
aI0
aI0
aI0
aI0
aI0
aI0
aI0
aaI00
a.(lp0
I40
aI2
aI-1
a(lp1
F4100.4
aF4313.58
aF4215.15
aF4362.03
aF4084.59
aF4408.95
aF4552.77
aF3954.54
aF4223.31
aF4148.85
aF4407.93
aF3910.17
aF4248.81
aF4243.2
aa(lp2
I0
aI0
aI0
aI0
aI0
aI0
aI0
aI0
aI0
aI0
aI0
aI0
aI0
aI0
aaI00
a.(lp0
I84
aI2
aI-1
a(lp1
F4461.4800000000005
aF4633.86
aF4544.61
aF4604.28
aF4424.25
aF4548.18
aF4567.56
aF4154.46
aF4410.99
aF4479.84
aF4648.14
aF4453.32
aF4604.79
aF4608.36
aa(lp2
I0
aI0
aI0
aI0
aI0
aI0
aI0
aI0
aI0
aI0
aI0
aI0
aI0
aI0
aaI00
a.(lp0
I90
aI2
aI-1
a(lp1
F4262.58
aF4444.65
aF4369.17
aF4518.6
aF4242.6900000000005
aF4466.58
aF4557.87
aF4046.34
aF4303.38
aF4301.85
aF4522.68
aF4272.78
aF4403.85
aF4408.4400000000005
aa(lp2
I0
aI0
aI0
aI0
aI0
aI0
aI0
aI0
aI0
aI0
aI0
aI0
aI0
aI0
aaI00
a.(lp0
I96
aI2
aI-1
a(lp1
F4180.47
aF4393.65
aF4299.81
aF4516.05
aF4162.62
aF4471.68
aF4556.85
aF4010.13
aF4290.12
aF4235.55
aF4462.5
aF3971.37
aF4319.7
aF4291.14
aa(lp2
I0
aI0
aI0
aI0
aI0
aI0
aI0
aI0
aI0
aI0
aI0
aI0
aI0
aI0
aaI00
a.(lp0
I102
aI2
aI-1
a(lp1
F4429.35
aF4604.79
aF4525.2300000000005
aF4595.61
aF4398.75
aF4543.08
aF4568.58
aF4141.71
aF4402.83
aF4455.36
aF4622.64
aF4352.85
aF4562.46
aF4556.85
aa(lp2
I0
aI0
aI0
aI0
aI0
aI0
aI0
aI0
aI0
aI0
aI0
aI0
aI0
aI0
aaI00
a.(lp0
I108
aI2
aI-1
a(lp1
F4307.46
aF4495.14
aF4418.13
aF4543.59
aF4277.88
aF4475.25
aF4557.87
aF4067.25
aF4322.25
aF4347.24
aF4539.51
aF4310.01
aF4459.4400000000005
aF4455.36
aa(lp2
I0
aI0
aI0
aI0
aI0
aI0
aI0
aI0
aI0
aI0
aI0
aI0
aI0
aI0
aaI00
a.(lp0
I114
aI2
aI-1
a(lp1
F4171.29
aF4355.91
aF4261.05
aF4505.85
aF4131.51
aF4438.53
aF4553.79
aF3988.2000000000003
aF4263.09
aF4192.71
aF4432.41
aF4022.88
aF4283.49
aF4284.51
aa(lp2
I0
aI0
aI0
aI0
aI0
aI0
aI0
aI0
aI0
aI0
aI0
aI0
aI0
aI0
aaI00
a.(lp0
I120
aI2
aI-1
a(lp1
F4376.31
aF4569.09
aF4484.9400000000005
aF4592.04
aF4356.93
aF4538.49
aF4564.5
aF4118.76
aF4388.55
aF4404.36
aF4597.14
aF4230.45
aF4527.78
aF4509.42
aa(lp2
I0
aI0
aI0
aI0
aI0
aI0
aI0
aI0
aI0
aI0
aI0
aI0
aI0
aI0
aaI00
a.(lp0
I126
aI2
aI-1
a(lp1
F4344.6900000000005
aF4524.21
aF4445.67
aF4558.38
aF4304.91
aF4479.84
aF4559.91
aF4078.4700000000003
aF4330.92
aF4370.7
aF4558.38
aF4287.06
aF4480.35
aF4488.51
aa(lp2
I0
aI0
aI0
aI0
aI0
aI0
aI0
aI0
aI0
aI0
aI0
aI0
aI0
aI0
aaI00
a.(lp0
I44
aI2
aI-1
a(lp1
F4123.86
aF4313.07
aF4229.43
aF4478.31
aF4080.51
aF4408.4400000000005
aF4551.24
aF3960.66
aF4235.04
aF4143.75
aF4405.89
aF3902.52
aF4237.08
aF4251.87
aa(lp2
I0
aI0
aI0
aI0
aI0
aI0
aI0
aI0
aI0
aI0
aI0
aI0
aI0
aI0
aaI00
a.(lp0
I49
aI2
aI-1
a(lp1
F4166.1900000000005
aF4344.6900000000005
aF4267.17
aF4497.6900000000005
aF4112.64
aF4435.47
aF4553.28
aF3989.2200000000003
aF4259.01
aF4169.76
aF4435.47
aF4031.04
aF4274.31
aF4292.16
aa(lp2
I0
aI0
aI0
aI0
aI0
aI0
aI0
aI0
aI0
aI0
aI0
aI0
aI0
aI0
aaI00
a.(lp0
I57
aI2
aI-1
a(lp1
F4217.7
aF4398.75
aF4325.31
aF4511.46
aF4175.37
aF4434.45
aF4550.22
aF4011.66
aF4273.29
aF4231.9800000000005
aF4472.7
aF4209.03
aF4335.51
aF4353.36
aa(lp2
I0
aI0
aI0
aI0
aI0
aI0
aI0
aI0
aI0
aI0
aI0
aI0
aI0
aI0
aaI00
a.(lp0
I63
aI2
aI-1
a(lp1
F4075.92
aF4275.84
aF4186.59
aF4487.49
aF4039.2000000000003
aF4420.17
aF4550.7300000000005
aF3948.9300000000003
aF4238.1
aF4104.4800000000005
aF4379.37
aF3794.91
aF4182.0
aF4189.14
aa(lp2
I0
aI0
aI0
aI0
aI0
aI0
aI0
aI0
aI0
aI0
aI0
aI0
aI0
aI0
aaI00
a.(lp0
I69
aI2
aI-1
a(lp1
F4342.14
aF4531.86
aF4448.7300000000005
aF4577.76
aF4311.03
aF4517.58
aF4562.46
aF4094.79
aF4366.62
aF4363.05
aF4576.2300000000005
aF4275.84
aF4476.27
aF4474.2300000000005
aa(lp2
I0
aI0
aI0
aI0
aI0
aI0
aI0
aI0
aI0
aI0
aI0
aI0
aI0
aI0
aaI00
a.(lp0
I75
aI2
aI-1
a(lp1
F4291.14
aF4473.72
aF4410.4800000000005
aF4538.49
aF4253.4
aF4469.64
aF4556.34
aF4059.09
aF4322.25
aF4329.9
aF4539.0
aF4305.93
aF4436.49
aF4432.41
aa(lp2
I0
aI0
aI0
aI0
aI0
aI0
aI0
aI0
aI0
aI0
aI0
aI0
aI0
aI0
aaI00
a.(lp0
I81
aI2
aI-1
a(lp1
F4087.14
aF4275.84
aF4194.24
aF4475.76
aF4042.77
aF4419.66
aF4550.22
aF3950.46
aF4233.51
aF4116.72
aF4381.92
aF3871.92
aF4183.02
aF4202.91
aa(lp2
I0
aI0
aI0
aI0
aI0
aI0
aI0
aI0
aI0
aI0
aI0
aI0
aI0
aI0
aaI00
a.(lp0
I87
aI2
aI0
a(lp1
F4333.47
aF4508.91
aF4436.49
aF4572.66
aF4279.41
aF4517.58
aF4563.99
aF4085.1
aF4370.7
aF4337.55
aF4560.93
aF4157.52
aF4459.4400000000005
aF4452.81
aa(lp2
I0
aI0
aI0
aI0
aI0
aI0
aI0
aI0
aI0
aI0
aI0
aI0
aI0
aI0
aaI00
a.(lp0
I4
aI2
aI-1
a(lp1
F4355.91
aF4523.7
aF4460.46
aF4560.42
aF4305.42
aF4519.62
aF4565.01
aF4103.97
aF4375.29
aF4367.13
aF4585.92
aF4265.64
aF4471.17
aF4508.4
aa(lp2
I0
aI0
aI0
aI0
aI0
aI0
aI0
aI0
aI0
aI0
aI0
aI0
aI0
aI0
aaI00
a.(lp0
I10
aI2
aI-1
a(lp1
F4332.96
aF4489.02
aF4444.14
aF4528.8
aF4272.27
aF4479.33
aF4556.85
aF4074.39
aF4337.55
aF4339.08
aF4567.56
aF4344.6900000000005
aF4458.93
aF4494.63
aa(lp2
I0
aI0
aI0
aI0
aI0
aI0
aI0
aI0
aI0
aI0
aI0
aI0
aI0
aI0
aaI00
a.(lp0
I17
aI2
aI-1
a(lp1
F4255.4400000000005
aF4438.53
aF4378.86
aF4525.74
aF4201.89
aF4488.51
aF4556.34
aF4056.03
aF4336.53
aF4267.68
aF4520.13
aF4034.1
aF4373.25
aF4407.93
aa(lp2
I0
aI0
aI0
aI0
aI0
aI0
aI0
aI0
aI0
aI0
aI0
aI0
aI0
aI0
aaI00
a.(lp0
I22
aI2
aI-1
a(lp1
F4335.51
aF4506.36
aF4434.45
aF4549.71
aF4276.35
aF4519.62
aF4561.4400000000005
aF4091.73
aF4372.74
aF4343.16
aF4575.72
aF4180.47
aF4440.57
aF4485.96
aa(lp2
I0
aI0
aI0
aI0
aI0
aI0
aI0
aI0
aI0
aI0
aI0
aI0
aI0
aI0
aaI00
a.(lp0
I29
aI2
aI-1
a(lp1
F4262.07
aF4413.03
aF4355.4
aF4490.04
aF4205.46
aF4449.24
aF4551.75
aF4037.67
aF4300.83
aF4289.61
aF4508.91
aF4219.74
aF4376.31
aF4428.84
aa(lp2
I0
aI0
aI0
aI0
aI0
aI0
aI0
aI0
aI0
aI0
aI0
aI0
aI0
aI0
aaI00
a.(lp0
I35
aI2
aI-1
a(lp1
F4218.72
aF4398.75
aF4330.41
aF4492.08
aF4169.76
aF4469.64
aF4554.3
aF4031.55
aF4311.54
aF4240.65
aF4487.49
aF4031.04
aF4326.33
aF4388.55
aa(lp2
I0
aI0
aI0
aI0
aI0
aI0
aI0
aI0
aI0
aI0
aI0
aI0
aI0
aI0
aaI00
a.(lp0
I40
aI2
aI-1
a(lp1
F4291.14
aF4455.87
aF4390.08
aF4518.09
aF4227.39
aF4503.3
aF4558.38
aF4067.76
aF4348.26
aF4302.36
aF4530.33
aF4073.88
aF4394.67
aF4434.45
aa(lp2
I0
aI0
aI0
aI0
aI0
aI0
aI0
aI0
aI0
aI0
aI0
aI0
aI0
aI0
aaI00
a.(lp0
I46
aI2
aI-1
a(lp1
F4484.9400000000005
aF4623.66
aF4568.07
aF4553.28
aF4398.75
aF4530.84
aF4562.97
aF4144.77
aF4404.36
aF4486.9800000000005
aF4653.75
aF4521.15
aF4593.06
aF4627.74
aa(lp2
I0
aI0
aI0
aI0
aI0
aI0
aI0
aI0
aI0
aI0
aI0
aI0
aI0
aI0
aaI00
a.(lp0
I97
aI2
aI-1
a(lp1
F4387.02
aF4495.14
aF4439.04
aF4478.82
aF4269.21
aF4474.74
aF4556.85
aF4073.37
aF4337.55
aF4347.24
aF4557.36
aF4332.96
aF4464.54
aF4484.9400000000005
aa(lp2
I0
aI0
aI0
aI0
aI0
aI0
aI0
aI0
aI0
aI0
aI0
aI0
aI0
aI0
aaI00
a.(lp0
I103
aI2
aI-1
a(lp1
F4150.89
aF4294.2
aF4216.17
aF4402.83
aF4035.63
aF4407.93
aF4544.61
aF3958.11
aF4240.65
aF4123.35
aF4399.77
aF3919.86
aF4203.93
aF4232.49
aa(lp2
I0
aI0
aI0
aI0
aI0
aI0
aI0
aI0
aI0
aI0
aI0
aI0
aI0
aI0
aaI00
a.(lp0
I110
aI2
aI-1
a(lp1
F4525.74
aF4644.57
aF4562.97
aF4526.25
aF4405.89
aF4533.9
aF4563.4800000000005
aF4147.83
aF4406.91
aF4487.49
aF4661.91
aF4489.53
aF4623.15
aF4625.1900000000005
aa(lp2
I0
aI0
aI0
aI0
aI0
aI0
aI0
aI0
aI0
aI0
aI0
aI0
aI0
aI0
aaI00
a.(lp0
I115
aI2
aI-1
a(lp1
F4463.52
aF4584.9
aF4503.81
aF4501.26
aF4336.53
aF4498.2
aF4560.42
aF4115.1900000000005
aF4376.82
aF4416.6
aF4626.21
aF4446.18
aF4557.36
aF4563.4800000000005
aa(lp2
I0
aI0
aI0
aI0
aI0
aI0
aI0
aI0
aI0
aI0
aI0
aI0
aI0
aI0
aaI00
a.(lp0
I121
aI2
aI-1
a(lp1
F4197.3
aF4346.7300000000005
aF4255.4400000000005
aF4410.4800000000005
aF4101.42
aF4421.1900000000005
aF4549.2
aF3980.55
aF4259.01
aF4179.96
aF4443.63
aF4007.58
aF4291.65
aF4293.6900000000005
aa(lp2
I0
aI0
aI0
aI0
aI0
aI0
aI0
aI0
aI0
aI0
aI0
aI0
aI0
aI0
aaI00
a.(lp0
I127
aI2
aI-1
a(lp1
F4327.35
aF4474.74
aF4383.45
aF4466.58
aF4221.78
aF4497.18
aF4557.87
aF4058.58
aF4343.67
aF4296.24
aF4538.49
aF4060.62
aF4413.54
aF4408.4400000000005
aa(lp2
I0
aI0
aI0
aI0
aI0
aI0
aI0
aI0
aI0
aI0
aI0
aI0
aI0
aI0
aaI00
a.(lp0
I5
aI2
aI-1
a(lp1
F4358.46
aF4484.9400000000005
aF4422.21
aF4444.14
aF4256.97
aF4462.5
aF4553.28
aF4059.09
aF4315.62
aF4340.61
aF4548.6900000000005
aF4291.65
aF4461.4800000000005
aF4460.97
aa(lp2
I0
aI0
aI0
aI0
aI0
aI0
aI0
aI0
aI0
aI0
aI0
aI0
aI0
aI0
aaI00
a.(lp0
I11
aI2
aI-1
a(lp1
F4249.83
aF4390.59
aF4316.64
aF4400.79
aF4141.71
aF4443.12
aF4551.75
aF4007.58
aF4282.9800000000005
aF4220.76
aF4461.99
aF4044.3
aF4325.82
aF4326.33
aa(lp2
I0
aI0
aI0
aI0
aI0
aI0
aI0
aI0
aI0
aI0
aI0
aI0
aI0
aI0
aaI00
a.(lp0
I67
aI2
aI-1
a(lp1
F4399.77
aF4549.71
aF4453.83
aF4284.0
aF4310.01
aF4525.74
aF4562.97
aF4087.65
aF4371.72
aF4388.55
aF4584.39
aF4173.84
aF4505.34
aF4510.4400000000005
aa(lp2
I0
aI0
aI0
aI0
aI0
aI0
aI0
aI0
aI0
aI0
aI0
aI0
aI0
aI0
aaI00
a.(lp0
I72
aI2
aI-1
a(lp1
F4445.16
aF4610.91
aF4511.97
aF4084.08
aF4391.61
aF4530.84
aF4561.95
aF4097.34
aF4374.27
aF4422.21
aF4607.85
aF4316.64
aF4548.6900000000005
aF4566.54
aa(lp2
I0
aI0
aI0
aI0
aI0
aI0
aI0
aI0
aI0
aI0
aI0
aI0
aI0
aI0
aaI00
a.(lp0
I80
aI2
aI-1
a(lp1
F4358.97
aF4540.53
aF4437.51
aF3330.81
aF4317.66
aF4504.32
aF4559.4
aF4027.98
aF4312.56
aF4369.17
aF4545.12
aF4046.85
aF4493.1
aF4502.79
aa(lp2
I0
aI0
aI0
aI0
aI0
aI0
aI0
aI0
aI0
aI0
aI0
aI0
aI0
aI0
aaI00
a.(lp0
I87
aI2
aI-1
a(lp1
F4518.09
aF4680.78
aF4598.16
aF3204.33
aF4489.53
aF4522.17
aF4557.87
aF4086.63
aF4345.71
aF4524.21
aF4638.45
aF4311.03
aF4688.9400000000005
aF4697.1
aa(lp2
I0
aI0
aI0
aI0
aI0
aI0
aI0
aI0
aI0
aI0
aI0
aI0
aI0
aI0
aaI00
a.(lp0
I95
aI2
aI-1
a(lp1
F4519.62
aF4693.53
aF4593.57
aF3360.9
aF4491.57
aF4556.34
aF4564.5
aF4106.52
aF4380.39
aF4514.52
aF4644.06
aF4392.12
aF4679.76
aF4678.74
aa(lp2
I0
aI0
aI0
aI0
aI0
aI0
aI0
aI0
aI0
aI0
aI0
aI0
aI0
aI0
aaI00
a.(lp0
I104
aI2
aI-1
a(lp1
F4567.56
aF4739.9400000000005
aF4641.0
aF3345.6
aF4545.12
aF4576.74
aF4565.01
aF4135.59
aF4401.81
aF4580.31
aF4674.15
aF4303.38
aF4731.27
aF4740.96
aa(lp2
I0
aI0
aI0
aI0
aI0
aI0
aI0
aI0
aI0
aI0
aI0
aI0
aI0
aI0
aaI00
a.(lp0
I113
aI2
aI-1
a(lp1
F4505.34
aF4679.76
aF4556.85
aF3345.09
aF4459.95
aF4554.3
aF4564.5
aF4095.3
aF4376.31
aF4517.07
aF4617.03
aF4250.85
aF4652.7300000000005
aF4657.83
aa(lp2
I0
aI0
aI0
aI0
aI0
aI0
aI0
aI0
aI0
aI0
aI0
aI0
aI0
aI0
aaI00
a.(lp0
I123
aI2
aI-1
a(lp1
F4570.62
aF4736.37
aF4630.8
aF3390.48
aF4544.1
aF4550.7300000000005
aF4562.97
aF4129.9800000000005
aF4389.06
aF4590.51
aF4660.89
aF4440.57
aF4745.55
aF4745.04
aa(lp2
I0
aI0
aI0
aI0
aI0
aI0
aI0
aI0
aI0
aI0
aI0
aI0
aI0
aI0
aaI00
a.(lp0
I61
aI2
aI-1
a(lp1
F4219.2300000000005
aF4497.18
aF4348.77
aF4107.54
aF4263.09
aF4501.26
aF4557.36
aF4037.16
aF4317.66
aF4339.59
aF4473.21
aF3985.65
aF4442.61
aF4439.55
aa(lp2
I0
aI0
aI0
aI0
aI0
aI0
aI0
aI0
aI0
aI0
aI0
aI0
aI0
aI0
aaI00
a.(lp0
I68
aI2
aI-1
a(lp1
F4325.82
aF4583.37
aF4448.22
aF4127.9400000000005
aF4372.74
aF4499.22
aF4554.81
aF4075.92
aF4325.82
aF4463.52
aF4543.59
aF4251.87
aF4568.58
aF4551.75
aa(lp2
I0
aI0
aI0
aI0
aI0
aI0
aI0
aI0
aI0
aI0
aI0
aI0
aI0
aI0
aaI00
a.(lp0
I74
aI2
aI-1
a(lp1
F4158.03
aF4422.72
aF4269.72
aF4081.53
aF4194.75
aF4454.85
aF4551.24
aF3992.28
aF4261.05
aF4282.47
aF4412.01
aF4065.7200000000003
aF4369.17
aF4354.38
aa(lp2
I0
aI0
aI0
aI0
aI0
aI0
aI0
aI0
aI0
aI0
aI0
aI0
aI0
aI0
aaI00
a.(lp0
I80
aI2
aI-1
a(lp1
F4369.17
aF4629.27
aF4475.25
aF4170.27
aF4395.18
aF4544.61
aF4561.4400000000005
aF4106.01
aF4375.8
aF4493.61
aF4570.62
aF4185.57
aF4596.12
aF4555.32
aa(lp2
I0
aI0
aI0
aI0
aI0
aI0
aI0
aI0
aI0
aI0
aI0
aI0
aI0
aI0
aaI00
a.(lp0
I86
aI2
aI-1
a(lp1
F4374.78
aF4620.6
aF4474.2300000000005
aF4159.56
aF4401.3
aF4514.01
aF4559.4
aF4096.32
aF4347.75
aF4506.87
aF4568.07
aF4315.11
aF4617.03
aF4582.35
aa(lp2
I0
aI0
aI0
aI0
aI0
aI0
aI0
aI0
aI0
aI0
aI0
aI0
aI0
aI0
aaI00
a.(lp0
I91
aI2
aI-1
a(lp1
F4331.9400000000005
aF4571.13
aF4430.37
aF4140.18
aF4362.03
aF4489.53
aF4554.3
aF4068.27
aF4321.74
aF4445.16
aF4529.82
aF4255.95
aF4570.11
aF4528.29
aa(lp2
I0
aI0
aI0
aI0
aI0
aI0
aI0
aI0
aI0
aI0
aI0
aI0
aI0
aI0
aaI00
a.(lp0
I98
aI2
aI0
a(lp1
F4278.9
aF4538.49
aF4366.62
aF4167.21
aF4296.75
aF4504.32
aF4559.4
aF4053.9900000000002
aF4329.9
aF4384.9800000000005
aF4498.2
aF4165.68
aF4486.9800000000005
aF4442.61
aa(lp2
I0
aI0
aI0
aI0
aI0
aI0
aI0
aI0
aI0
aI0
aI0
aI0
aI0
aI0
aaI00
a.(lp0
I103
aI2
aI-1
a(lp1
F4408.4400000000005
aF4643.55
aF4491.57
aF4206.4800000000005
aF4422.21
aF4548.18
aF4563.4800000000005
aF4116.72
aF4383.96
aF4495.14
aF4579.8
aF4216.68
aF4616.52
aF4564.5
aa(lp2
I0
aI0
aI0
aI0
aI0
aI0
aI0
aI0
aI0
aI0
aI0
aI0
aI0
aI0
aaI00
a.(lp0
I26
aI2
aI0
a(lp1
F4388.55
aF4601.22
aF4465.56
aF4116.21
aF4352.34
aF4500.24
aF4555.83
aF4075.92
aF4330.92
aF4447.71
aF4553.28
aF4252.38
aF4570.11
aF4533.9
aa(lp2
I0
aI0
aI0
aI0
aI0
aI0
aI0
aI0
aI0
aI0
aI0
aI0
aI0
aI0
aaI00
a.(lp0
I32
aI2
aI-1
a(lp1
F4214.64
aF4445.67
aF4288.08
aF4000.44
aF4180.9800000000005
aF4459.4400000000005
aF4552.77
aF3991.77
aF4264.62
aF4288.59
aF4426.8
aF4021.35
aF4384.9800000000005
aF4334.49
aa(lp2
I0
aI0
aI0
aI0
aI0
aI0
aI0
aI0
aI0
aI0
aI0
aI0
aI0
aI0
aaI00
a.(lp0
I38
aI2
aI-1
a(lp1
F4432.41
aF4656.81
aF4504.32
aF4096.32
aF4399.77
aF4554.3
aF4566.54
aF4115.7
aF4386.51
aF4503.81
aF4598.16
aF4194.24
aF4613.46
aF4550.7300000000005
aa(lp2
I0
aI0
aI0
aI0
aI0
aI0
aI0
aI0
aI0
aI0
aI0
aI0
aI0
aI0
aaI00
a.(lp0
I44
aI2
aI-1
a(lp1
F4438.02
aF4641.51
aF4504.32
aF4069.29
aF4393.14
aF4513.5
aF4557.36
aF4092.75
aF4351.83
aF4515.54
aF4581.33
aF4352.85
aF4616.52
aF4558.89
aa(lp2
I0
aI0
aI0
aI0
aI0
aI0
aI0
aI0
aI0
aI0
aI0
aI0
aI0
aI0
aaI00
a.(lp0
I50
aI2
aI-1
a(lp1
F4189.65
aF4416.6
aF4262.07
aF3990.75
aF4143.75
aF4434.45
aF4547.16
aF3973.92
aF4247.28
aF4271.25
aF4409.97
aF3898.44
aF4357.4400000000005
aF4309.5
aa(lp2
I0
aI0
aI0
aI0
aI0
aI0
aI0
aI0
aI0
aI0
aI0
aI0
aI0
aI0
aaI00
a.(lp0
I56
aI2
aI0
a(lp1
F4341.63
aF4558.89
aF4414.05
aF4079.4900000000002
aF4284.51
aF4513.5
aF4559.4
aF4059.09
aF4335.0
aF4405.89
aF4522.17
aF4211.07
aF4506.36
aF4459.95
aa(lp2
I0
aI0
aI0
aI0
aI0
aI0
aI0
aI0
aI0
aI0
aI0
aI0
aI0
aI0
aaI00
a.(lp0
I62
aI2
aI-1
a(lp1
F4484.9400000000005
aF4692.0
aF4543.59
aF4115.7
aF4381.41
aF4538.49
aF4560.93
aF4124.88
aF4377.33
aF4546.65
aF4623.66
aF4365.6
aF4669.56
aF4622.64
aa(lp2
I0
aI0
aI0
aI0
aI0
aI0
aI0
aI0
aI0
aI0
aI0
aI0
aI0
aI0
aaI00
a.(lp0
I67
aI2
aI-1
a(lp1
F4421.7
aF4619.58
aF4486.47
aF4122.84
aF4315.11
aF4504.83
aF4555.32
aF4084.08
aF4341.63
aF4489.53
aF4578.27
aF4260.54
aF4600.71
aF4562.46
aa(lp2
I0
aI0
aI0
aI0
aI0
aI0
aI0
aI0
aI0
aI0
aI0
aI0
aI0
aI0
aaI00
a.(lp0
I120
aI2
aI-1
a(lp1
F4314.09
aF4522.17
aF4379.37
aF4286.55
aF4196.28
aF4508.4
aF4557.87
aF4051.44
aF4330.41
aF4349.28
aF4536.45
aF4165.17
aF4471.17
aF4389.06
aa(lp2
I0
aI0
aI0
aI0
aI0
aI0
aI0
aI0
aI0
aI0
aI0
aI0
aI0
aI0
aaI00
a.(lp0
I126
aI2
aI-1
a(lp1
F4478.82
aF4670.58
aF4542.57
aF4330.92
aF4394.67
aF4550.22
aF4561.4400000000005
aF4129.47
aF4383.45
aF4496.67
aF4649.16
aF4377.84
aF4650.6900000000005
aF4546.14
aa(lp2
I0
aI0
aI0
aI0
aI0
aI0
aI0
aI0
aI0
aI0
aI0
aI0
aI0
aI0
aaI00
a.(lp0
I2
aI2
aI-1
a(lp1
F4430.37
aF4620.6
aF4481.88
aF4301.34
aF4344.6900000000005
aF4518.09
aF4556.34
aF4093.77
aF4348.77
aF4450.26
aF4598.16
aF4350.3
aF4599.18
aF4493.61
aa(lp2
I0
aI0
aI0
aI0
aI0
aI0
aI0
aI0
aI0
aI0
aI0
aI0
aI0
aI0
aaI00
a.(lp0
I8
aI2
aI-1
a(lp1
F4182.0
aF4392.63
aF4249.83
aF4231.9800000000005
aF4101.93
aF4451.79
aF4548.18
aF3977.4900000000002
aF4249.32
aF4244.22
aF4433.9400000000005
aF3914.76
aF4338.06
aF4243.71
aa(lp2
I0
aI0
aI0
aI0
aI0
aI0
aI0
aI0
aI0
aI0
aI0
aI0
aI0
aI0
aaI00
a.(lp0
I14
aI2
aI-1
a(lp1
F4337.04
aF4554.81
aF4403.85
aF4315.11
aF4275.33
aF4529.31
aF4559.4
aF4062.66
aF4342.65
aF4378.35
aF4532.37
aF4226.88
aF4494.12
aF4368.15
aa(lp2
I0
aI0
aI0
aI0
aI0
aI0
aI0
aI0
aI0
aI0
aI0
aI0
aI0
aI0
aaI00
a.(lp0
I21
aI2
aI-1
a(lp1
F4239.63
aF4443.12
aF4311.03
aF4261.05
aF4169.25
aF4458.42
aF4547.16
aF3999.42
aF4267.68
aF4295.22
aF4469.64
aF4140.6900000000005
aF4406.91
aF4289.61
aa(lp2
I0
aI0
aI0
aI0
aI0
aI0
aI0
aI0
aI0
aI0
aI0
aI0
aI0
aI0
aaI00
a.(lp0
I27
aI2
aI-1
a(lp1
F4157.01
aF4380.39
aF4225.86
aF4265.13
aF4080.51
aF4461.4800000000005
aF4551.75
aF3967.8
aF4260.03
aF4185.06
aF4406.4
aF3839.79
aF4297.26
aF4165.68
aa(lp2
I0
aI0
aI0
aI0
aI0
aI0
aI0
aI0
aI0
aI0
aI0
aI0
aI0
aI0
aaI00
a.(lp0
I32
aI2
aI-1
a(lp1
F4263.6
aF4459.95
aF4323.78
aF4301.34
aF4138.65
aF4489.53
aF4555.83
aF4019.31
aF4302.36
aF4292.67
aF4480.86
aF4044.81
aF4415.58
aF4279.41
aa(lp2
I0
aI0
aI0
aI0
aI0
aI0
aI0
aI0
aI0
aI0
aI0
aI0
aI0
aI0
aaI00
a.(lp0
I87
aI2
aI-1
a(lp1
F4306.4400000000005
aF4502.79
aF4359.4800000000005
aF4455.36
aF4235.04
aF4511.97
aF4557.36
aF4053.9900000000002
aF4337.04
aF4326.84
aF4523.7
aF4027.4700000000003
aF4430.88
aF4286.04
aa(lp2
I0
aI0
aI0
aI0
aI0
aI0
aI0
aI0
aI0
aI0
aI0
aI0
aI0
aI0
aaI00
a.(lp0
I93
aI2
aI-1
a(lp1
F4501.77
aF4680.27
aF4551.24
aF4523.7
aF4426.8
aF4551.75
aF4563.99
aF4144.77
aF4407.93
aF4515.54
aF4662.93
aF4477.29
aF4656.81
aF4505.34
aa(lp2
I0
aI0
aI0
aI0
aI0
aI0
aI0
aI0
aI0
aI0
aI0
aI0
aI0
aI0
aaI00
a.(lp0
I99
aI2
aI-1
a(lp1
F4286.04
aF4467.6
aF4326.33
aF4428.84
aF4215.15
aF4461.99
aF4550.7300000000005
aF4028.4900000000002
aF4290.12
aF4305.93
aF4508.4
aF4180.47
aF4419.66
aF4275.33
aa(lp2
I0
aI0
aI0
aI0
aI0
aI0
aI0
aI0
aI0
aI0
aI0
aI0
aI0
aI0
aaI00
a.(lp0
I104
aI2
aI-1
a(lp1
F4185.57
aF4377.84
aF4233.51
aF4395.18
aF4117.74
aF4432.92
aF4545.63
aF3972.9
aF4250.34
aF4194.75
aF4427.82
aF3960.66
aF4304.91
aF4152.42
aa(lp2
I0
aI0
aI0
aI0
aI0
aI0
aI0
aI0
aI0
aI0
aI0
aI0
aI0
aI0
aaI00
a.(lp0
I112
aI2
aI-1
a(lp1
F4405.38
aF4572.15
aF4436.49
aF4453.83
aF4330.92
aF4490.55
aF4556.34
aF4078.4700000000003
aF4331.9400000000005
aF4418.13
aF4580.31
aF4285.53
aF4546.14
aF4372.74
aa(lp2
I0
aI0
aI0
aI0
aI0
aI0
aI0
aI0
aI0
aI0
aI0
aI0
aI0
aI0
aaI00
a.(lp0
I118
aI2
aI-1
a(lp1
F4208.52
aF4390.08
aF4243.71
aF4383.96
aF4128.96
aF4440.57
aF4550.22
aF3981.57
aF4257.4800000000005
aF4210.05
aF4437.51
aF3983.1
aF4328.37
aF4147.83
aa(lp2
I0
aI0
aI0
aI0
aI0
aI0
aI0
aI0
aI0
aI0
aI0
aI0
aI0
aI0
aaI00
a.(lp0
I123
aI2
aI-1
a(lp1
F4242.6900000000005
aF4420.68
aF4279.41
aF4401.3
aF4159.56
aF4464.54
aF4554.3
aF4005.54
aF4282.47
aF4255.4400000000005
aF4473.72
aF3997.89
aF4358.46
aF4186.08
aa(lp2
I0
aI0
aI0
aI0
aI0
aI0
aI0
aI0
aI0
aI0
aI0
aI0
aI0
aI0
aaI00
a.(lp0
I0
aI2
aI-1
a(lp1
F4487.49
aF4655.28
aF4515.54
aF4487.49
aF4416.6
aF4554.3
aF4563.99
aF4133.55
aF4398.75
aF4482.39
aF4641.0
aF4260.03
aF4615.5
aF4431.9
aa(lp2
I0
aI0
aI0
aI0
aI0
aI0
aI0
aI0
aI0
aI0
aI0
aI0
aI0
aI0
aaI00
a.(lp0
I57
aI2
aI-1
a(lp1
F4281.45
aF4457.4
aF4339.59
aF4350.3
aF4221.78
aF4455.87
aF4550.7300000000005
aF4027.4700000000003
aF4287.06
aF4284.51
aF4519.62
aF4179.96
aF4412.01
aF4302.87
aa(lp2
I0
aI0
aI0
aI0
aI0
aI0
aI0
aI0
aI0
aI0
aI0
aI0
aI0
aI0
aaI00
a.(lp0
I62
aI2
aI-1
a(lp1
F4177.92
aF4367.13
aF4242.18
aF4323.78
aF4115.1900000000005
aF4430.88
aF4551.75
aF3978.51
aF4252.89
aF4191.6900000000005
aF4447.71
aF3983.61
aF4301.34
aF4188.12
aa(lp2
I0
aI0
aI0
aI0
aI0
aI0
aI0
aI0
aI0
aI0
aI0
aI0
aI0
aI0
aaI00
a.(lp0
I69
aI2
aI-1
a(lp1
F4498.71
aF4681.29
aF4557.36
aF4445.67
aF4460.46
aF4554.81
aF4565.52
aF4148.85
aF4411.5
aF4521.15
aF4681.8
aF4427.31
aF4660.38
aF4530.33
aa(lp2
I0
aI0
aI0
aI0
aI0
aI0
aI0
aI0
aI0
aI0
aI0
aI0
aI0
aI0
aaI00
a.(lp0
I74
aI2
aI-1
a(lp1
F4489.53
aF4665.4800000000005
aF4543.59
aF4433.43
aF4433.9400000000005
aF4536.96
aF4563.4800000000005
aF4134.06
aF4394.67
aF4495.14
aF4671.6
aF4508.91
aF4641.0
aF4506.87
aa(lp2
I0
aI0
aI0
aI0
aI0
aI0
aI0
aI0
aI0
aI0
aI0
aI0
aI0
aI0
aaI00
a.(lp0
I81
aI2
aI-1
a(lp1
F4225.35
aF4425.27
aF4290.63
aF4344.18
aF4180.47
aF4457.91
aF4552.77
aF4010.64
aF4288.59
aF4253.91
aF4480.35
aF4010.13
aF4368.15
aF4241.16
aa(lp2
I0
aI0
aI0
aI0
aI0
aI0
aI0
aI0
aI0
aI0
aI0
aI0
aI0
aI0
aaI00
a.(lp0
I87
aI2
aI-1
a(lp1
F4469.64
aF4652.22
aF4526.76
aF4430.37
aF4418.13
aF4543.59
aF4566.54
aF4137.63
aF4400.79
aF4486.47
aF4653.24
aF4286.55
aF4624.68
aF4482.9
aa(lp2
I0
aI0
aI0
aI0
aI0
aI0
aI0
aI0
aI0
aI0
aI0
aI0
aI0
aI0
aaI00
a.(lp0
I94
aI2
aI-1
a(lp1
F4164.15
aF4355.91
aF4228.92
aF4307.46
aF4106.01
aF4416.6
aF4546.14
aF3966.78
aF4238.61
aF4197.81
aF4429.86
aF3920.37
aF4305.93
aF4176.9
aa(lp2
I0
aI0
aI0
aI0
aI0
aI0
aI0
aI0
aI0
aI0
aI0
aI0
aI0
aI0
aaI00
a.(lp0
I100
aI2
aI-1
a(lp1
F4288.08
aF4488.0
aF4357.95
aF4366.62
aF4231.47
aF4491.57
aF4557.36
aF4050.42
aF4324.29
aF4314.6
aF4527.27
aF4166.1900000000005
aF4434.96
aF4308.4800000000005
aa(lp2
I0
aI0
aI0
aI0
aI0
aI0
aI0
aI0
aI0
aI0
aI0
aI0
aI0
aI0
aaI00
a.(lp0
I32
aI2
aI-1
a(lp1
F4472.1900000000005
aF4654.77
aF4531.86
aF4463.01
aF4423.74
aF4481.37
aF4558.38
aF4127.43
aF4389.06
aF4479.33
aF4657.83
aF4509.42
aF4627.2300000000005
aF4529.82
aa(lp2
I0
aI0
aI0
aI0
aI0
aI0
aI0
aI0
aI0
aI0
aI0
aI0
aI0
aI0
aaI00
a.(lp0
I40
aI2
aI-1
a(lp1
F4393.65
aF4580.82
aF4450.77
aF4449.24
aF4342.65
aF4468.62
aF4561.4400000000005
aF4096.83
aF4368.15
aF4398.24
aF4602.75
aF4187.61
aF4520.64
aF4430.88
aa(lp2
I0
aI0
aI0
aI0
aI0
aI0
aI0
aI0
aI0
aI0
aI0
aI0
aI0
aI0
aaI00
a.(lp0
I48
aI2
aI-1
a(lp1
F4115.1900000000005
aF4317.15
aF4185.57
aF4358.46
aF4069.29
aF4371.72
aF4546.14
aF3953.01
aF4239.63
aF4132.53
aF4407.93
aF3854.58
aF4231.47
aF4140.6900000000005
aa(lp2
I0
aI0
aI0
aI0
aI0
aI0
aI0
aI0
aI0
aI0
aI0
aI0
aI0
aI0
aaI00
a.(lp0
I57
aI2
aI-1
a(lp1
F4191.18
aF4385.49
aF4272.27
aF4386.51
aF4138.65
aF4385.49
aF4548.18
aF3993.81
aF4268.1900000000005
aF4224.84
aF4464.54
aF4013.19
aF4331.9400000000005
aF4247.79
aa(lp2
I0
aI0
aI0
aI0
aI0
aI0
aI0
aI0
aI0
aI0
aI0
aI0
aI0
aI0
aaI00
a.(lp0
I65
aI2
aI-1
a(lp1
F4256.46
aF4421.7
aF4321.2300000000005
aF4404.36
aF4189.14
aF4378.35
aF4544.1
aF4005.03
aF4273.8
aF4255.95
aF4505.85
aF4219.2300000000005
aF4391.1
aF4321.74
aa(lp2
I0
aI0
aI0
aI0
aI0
aI0
aI0
aI0
aI0
aI0
aI0
aI0
aI0
aI0
aaI00
a.(lp0
I72
aI2
aI-1
a(lp1
F4355.4
aF4550.22
aF4432.41
aF4481.88
aF4316.64
aF4472.1900000000005
aF4560.93
aF4084.08
aF4365.6
aF4350.81
aF4582.35
aF4178.9400000000005
aF4487.49
aF4399.77
aa(lp2
I0
aI0
aI0
aI0
aI0
aI0
aI0
aI0
aI0
aI0
aI0
aI0
aI0
aI0
aaI00
a.(lp0
I79
aI2
aI-1
a(lp1
F4284.0
aF4461.4800000000005
aF4349.79
aF4434.96
aF4225.35
aF4401.81
aF4546.14
aF4026.4500000000003
aF4295.7300000000005
aF4285.02
aF4522.68
aF4216.68
aF4422.21
aF4360.5
aa(lp2
I0
aI0
aI0
aI0
aI0
aI0
aI0
aI0
aI0
aI0
aI0
aI0
aI0
aI0
aaI00
a.(lp0
I85
aI2
aI-1
a(lp1
F4245.75
aF4442.61
aF4318.17
aF4441.08
aF4191.18
aF4425.27
aF4553.28
aF4023.39
aF4306.4400000000005
aF4241.67
aF4499.22
aF4037.16
aF4376.31
aF4295.22
aa(lp2
I0
aI0
aI0
aI0
aI0
aI0
aI0
aI0
aI0
aI0
aI0
aI0
aI0
aI0
aaI00
a.(lp0
I15
aI2
aI-1
a(lp1
F4212.6
aF4385.49
aF4264.62
aF4441.08
aF4111.11
aF4391.1
aF4546.14
aF3993.3
aF4265.64
aF4193.22
aF4455.87
aF4007.58
aF4315.11
aF4275.33
aa(lp2
I0
aI0
aI0
aI0
aI0
aI0
aI0
aI0
aI0
aI0
aI0
aI0
aI0
aI0
aaI00
a.(lp0
I21
aI2
aI-1
a(lp1
F4426.8
aF4605.3
aF4466.58
aF4530.84
aF4373.76
aF4488.0
aF4562.46
aF4113.66
aF4380.39
aF4428.84
aF4616.01
aF4178.9400000000005
aF4556.34
aF4480.86
aa(lp2
I0
aI0
aI0
aI0
aI0
aI0
aI0
aI0
aI0
aI0
aI0
aI0
aI0
aI0
aaI00
a.(lp0
I26
aI2
aI-1
a(lp1
F4488.51
aF4657.32
aF4544.1
aF4546.14
aF4390.08
aF4500.24
aF4563.99
aF4142.22
aF4403.34
aF4474.2300000000005
aF4659.36
aF4389.06
aF4638.45
aF4569.09
aa(lp2
I0
aI0
aI0
aI0
aI0
aI0
aI0
aI0
aI0
aI0
aI0
aI0
aI0
aI0
aaI00
a.(lp0
I33
aI2
aI-1
a(lp1
F4166.7
aF4355.91
aF4220.25
aF4429.86
aF4108.56
aF4376.82
aF4544.1
aF3972.39
aF4245.24
aF4175.37
aF4434.96
aF3930.57
aF4301.34
aF4233.51
aa(lp2
I0
aI0
aI0
aI0
aI0
aI0
aI0
aI0
aI0
aI0
aI0
aI0
aI0
aI0
aaI00
a.(lp0
I39
aI2
aI-1
a(lp1
F4347.24
aF4516.56
aF4390.08
aF4498.2
aF4251.36
aF4454.85
aF4556.85
aF4069.29
aF4343.16
aF4350.3
aF4553.79
aF4243.71
aF4478.82
aF4398.75
aa(lp2
I0
aI0
aI0
aI0
aI0
aI0
aI0
aI0
aI0
aI0
aI0
aI0
aI0
aI0
aaI00
a.(lp0
I44
aI2
aI-1
a(lp1
F4452.3
aF4617.03
aF4490.55
aF4539.0
aF4372.2300000000005
aF4495.14
aF4561.95
aF4124.88
aF4387.02
aF4439.55
aF4632.84
aF4253.4
aF4594.59
aF4517.07
aa(lp2
I0
aI0
aI0
aI0
aI0
aI0
aI0
aI0
aI0
aI0
aI0
aI0
aI0
aI0
aaI00
a.(lp0
I51
aI2
aI-1
a(lp1
F4156.5
aF4325.31
aF4213.11
aF4415.58
aF4067.25
aF4364.07
aF4541.04
aF3956.58
aF4229.9400000000005
aF4163.64
aF4419.15
aF3932.1
aF4280.43
aF4223.31
aa(lp2
I0
aI0
aI0
aI0
aI0
aI0
aI0
aI0
aI0
aI0
aI0
aI0
aI0
aI0
aaI00
a.(lp0
I56
aI2
aI-1
a(lp1
F4184.55
aF4362.54
aF4231.47
aF4435.47
aF4109.07
aF4387.53
aF4544.61
aF3984.63
aF4255.4400000000005
aF4193.7300000000005
aF4445.16
aF3951.48
aF4315.11
aF4259.52
aa(lp2
I0
aI0
aI0
aI0
aI0
aI0
aI0
aI0
aI0
aI0
aI0
aI0
aI0
aI0
aaI00
a.(lp0
I118
aI2
aI-1
a(lp1
F4496.16
aF4655.28
aF4515.54
aF4539.51
aF4440.06
aF4499.7300000000005
aF4561.95
aF4140.6900000000005
aF4395.18
aF4492.08
aF4652.22
aF4516.56
aF4628.25
aF4596.12
aa(lp2
I0
aI0
aI0
aI0
aI0
aI0
aI0
aI0
aI0
aI0
aI0
aI0
aI0
aI0
aaI00
a.(lp0
I124
aI2
aI-1
a(lp1
F4273.29
aF4436.49
aF4303.38
aF4449.24
aF4205.97
aF4410.99
aF4548.18
aF4015.7400000000002
aF4279.92
aF4280.9400000000005
aF4489.53
aF4162.11
aF4391.61
aF4363.56
aa(lp2
I0
aI0
aI0
aI0
aI0
aI0
aI0
aI0
aI0
aI0
aI0
aI0
aI0
aI0
aaI00
a.(lp0
I1
aI2
aI-1
a(lp1
F4271.76
aF4448.22
aF4311.54
aF4461.99
aF4200.36
aF4444.14
aF4554.81
aF4033.08
aF4309.5
aF4264.11
aF4493.1
aF4028.4900000000002
aF4381.41
aF4354.38
aa(lp2
I0
aI0
aI0
aI0
aI0
aI0
aI0
aI0
aI0
aI0
aI0
aI0
aI0
aI0
aaI00
a.(lp0
I7
aI2
aI-1
a(lp1
F4512.99
aF4673.13
aF4541.04
aF4521.15
aF4455.36
aF4510.95
aF4560.93
aF4143.75
aF4405.89
aF4514.52
aF4658.85
aF4455.87
aF4651.2
aF4595.61
aa(lp2
I0
aI0
aI0
aI0
aI0
aI0
aI0
aI0
aI0
aI0
aI0
aI0
aI0
aI0
aaI00
a.(lp0
I13
aI2
aI-1
a(lp1
F4342.65
aF4497.6900000000005
aF4379.88
aF4434.45
aF4272.78
aF4429.35
aF4548.18
aF4045.32
aF4302.36
aF4333.47
aF4531.86
aF4301.34
aF4460.97
aF4420.17
aa(lp2
I0
aI0
aI0
aI0
aI0
aI0
aI0
aI0
aI0
aI0
aI0
aI0
aI0
aI0
aaI00
a.(lp0
I19
aI2
aI-1
a(lp1
F4237.08
aF4413.03
aF4275.84
aF4413.54
aF4182.0
aF4428.33
aF4548.18
aF4009.62
aF4288.59
aF4250.85
aF4468.11
aF3984.12
aF4351.83
aF4317.66
aa(lp2
I0
aI0
aI0
aI0
aI0
aI0
aI0
aI0
aI0
aI0
aI0
aI0
aI0
aI0
aaI00
a.(lp0
I25
aI2
aI-1
a(lp1
F4495.14
aF4641.51
aF4522.17
aF4473.21
aF4414.05
aF4514.52
aF4559.4
aF4133.04
aF4399.26
aF4474.2300000000005
aF4643.55
aF4312.56
aF4613.46
aF4571.64
aa(lp2
I0
aI0
aI0
aI0
aI0
aI0
aI0
aI0
aI0
aI0
aI0
aI0
aI0
aI0
aaI00
a.(lp0
I30
aI2
aI-1
a(lp1
F4508.91
aF4674.15
aF4564.5
aF4462.5
aF4465.05
aF4528.29
aF4560.42
aF4144.26
aF4401.3
aF4519.11
aF4663.95
aF4468.62
aF4649.67
aF4607.85
aa(lp2
I0
aI0
aI0
aI0
aI0
aI0
aI0
aI0
aI0
aI0
aI0
aI0
aI0
aI0
aaI00
a.