(lp0
I85
aI2
aI-1
a(lp1
F4442.61
aF4601.7300000000005
aF4440.06
aF4196.79
aF4379.37
aF4627.2300000000005
aF4554.3
aF4288.08
aF4534.41
aF4483.92
aF4606.32
aF4233.51
aF4567.56
aF4570.11
aa(lp2
I0
aI0
aI0
aI0
aI0
aI0
aI0
aI0
aI0
aI0
aI0
aI0
aI0
aI0
aaI00
a.(lp0
I86
aI2
aI-1
a(lp1
F4442.61
aF4601.7300000000005
aF4440.06
aF4196.79
aF4379.37
aF4627.2300000000005
aF4554.3
aF4288.08
aF4534.41
aF4483.92
aF4606.32
aF4233.51
aF4567.56
aF4570.11
aa(lp2
I0
aI0
aI0
aI0
aI0
aI0
aI0
aI0
aI0
aI0
aI0
aI0
aI0
aI0
aaI00
a.(lp0
I87
aI2
aI-1
a(lp1
F4442.61
aF4601.7300000000005
aF4440.06
aF4196.79
aF4379.37
aF4627.2300000000005
aF4554.3
aF4288.08
aF4534.41
aF4483.92
aF4606.32
aF4233.51
aF4567.56
aF4570.11
aa(lp2
I0
aI0
aI0
aI0
aI0
aI0
aI0
aI0
aI0
aI0
aI0
aI0
aI0
aI0
aaI00
a.(lp0
I88
aI2
aI-1
a(lp1
F4442.61
aF4601.7300000000005
aF4440.06
aF4196.79
aF4379.37
aF4627.2300000000005
aF4554.3
aF4288.08
aF4534.41
aF4483.92
aF4606.32
aF4233.51
aF4567.56
aF4570.11
aa(lp2
I0
aI0
aI0
aI0
aI0
aI0
aI0
aI0
aI0
aI0
aI0
aI0
aI0
aI0
aaI00
a.(lp0
I89
aI2
aI-1
a(lp1
F4442.61
aF4601.7300000000005
aF4440.06
aF4196.79
aF4379.37
aF4627.2300000000005
aF4554.3
aF4288.08
aF4534.41
aF4483.92
aF4606.32
aF4233.51
aF4567.56
aF4570.11
aa(lp2
I0
aI0
aI0
aI0
aI0
aI0
aI0
aI0
aI0
aI0
aI0
aI0
aI0
aI0
aaI00
a.(lp0
I90
aI2
aI-1
a(lp1
F4442.61
aF4601.7300000000005
aF4440.06
aF4196.79
aF4379.37
aF4627.2300000000005
aF4554.3
aF4288.08
aF4534.41
aF4483.92
aF4606.32
aF4233.51
aF4567.56
aF4570.11
aa(lp2
I0
aI0
aI0
aI0
aI0
aI0
aI0
aI0
aI0
aI0
aI0
aI0
aI0
aI0
aaI00
a.(lp0
I91
aI2
aI-1
a(lp1
F4442.61
aF4601.7300000000005
aF4440.06
aF4196.79
aF4379.37
aF4627.2300000000005
aF4554.3
aF4288.08
aF4534.41
aF4483.92
aF4606.32
aF4233.51
aF4567.56
aF4570.11
aa(lp2
I0
aI0
aI0
aI0
aI0
aI0
aI0
aI0
aI0
aI0
aI0
aI0
aI0
aI0
aaI00
a.(lp0
I92
aI2
aI-1
a(lp1
F4442.61
aF4601.7300000000005
aF4440.06
aF4196.79
aF4379.37
aF4627.2300000000005
aF4554.3
aF4288.08
aF4534.41
aF4483.92
aF4606.32
aF4233.51
aF4567.56
aF4570.11
aa(lp2
I0
aI0
aI0
aI0
aI0
aI0
aI0
aI0
aI0
aI0
aI0
aI0
aI0
aI0
aaI00
a.(lp0
I93
aI2
aI-1
a(lp1
F4329.39
aF4484.43
aF4320.21
aF4169.76
aF4252.38
aF4598.67
aF4549.2
aF4155.99
aF4413.54
aF4357.4400000000005
aF4508.4
aF4020.33
aF4423.74
aF4434.96
aa(lp2
I0
aI0
aI0
aI0
aI0
aI0
aI0
aI0
aI0
aI0
aI0
aI0
aI0
aI0
aaI00
a.(lp0
I94
aI2
aI-1
a(lp1
F4329.39
aF4484.43
aF4320.21
aF4169.76
aF4252.38
aF4598.67
aF4549.2
aF4155.99
aF4413.54
aF4357.4400000000005
aF4508.4
aF4020.33
aF4423.74
aF4434.96
aa(lp2
I0
aI0
aI0
aI0
aI0
aI0
aI0
aI0
aI0
aI0
aI0
aI0
aI0
aI0
aaI00
a.(lp0
I95
aI2
aI-1
a(lp1
F4329.39
aF4484.43
aF4320.21
aF4169.76
aF4252.38
aF4598.67
aF4549.2
aF4155.99
aF4413.54
aF4357.4400000000005
aF4508.4
aF4020.33
aF4423.74
aF4434.96
aa(lp2
I0
aI0
aI0
aI0
aI0
aI0
aI0
aI0
aI0
aI0
aI0
aI0
aI0
aI0
aaI00
a.(lp0
I96
aI2
aI-1
a(lp1
F4329.39
aF4484.43
aF4320.21
aF4169.76
aF4252.38
aF4598.67
aF4549.2
aF4155.99
aF4413.54
aF4357.4400000000005
aF4508.4
aF4020.33
aF4423.74
aF4434.96
aa(lp2
I0
aI0
aI0
aI0
aI0
aI0
aI0
aI0
aI0
aI0
aI0
aI0
aI0
aI0
aaI00
a.(lp0
I97
aI2
aI-1
a(lp1
F4329.39
aF4484.43
aF4320.21
aF4169.76
aF4252.38
aF4598.67
aF4549.2
aF4155.99
aF4413.54
aF4357.4400000000005
aF4508.4
aF4020.33
aF4423.74
aF4434.96
aa(lp2
I0
aI0
aI0
aI0
aI0
aI0
aI0
aI0
aI0
aI0
aI0
aI0
aI0
aI0
aaI00
a.(lp0
I98
aI2
aI-1
a(lp1
F4329.39
aF4484.43
aF4320.21
aF4169.76
aF4252.38
aF4598.67
aF4549.2
aF4155.99
aF4413.54
aF4357.4400000000005
aF4508.4
aF4020.33
aF4423.74
aF4434.96
aa(lp2
I0
aI0
aI0
aI0
aI0
aI0
aI0
aI0
aI0
aI0
aI0
aI0
aI0
aI0
aaI00
a.(lp0
I99
aI2
aI-1
a(lp1
F4329.39
aF4484.43
aF4320.21
aF4169.76
aF4252.38
aF4598.67
aF4549.2
aF4155.99
aF4413.54
aF4357.4400000000005
aF4508.4
aF4020.33
aF4423.74
aF4434.96
aa(lp2
I0
aI0
aI0
aI0
aI0
aI0
aI0
aI0
aI0
aI0
aI0
aI0
aI0
aI0
aaI00
a.(lp0
I100
aI2
aI-1
a(lp1
F4329.39
aF4484.43
aF4320.21
aF4169.76
aF4252.38
aF4598.67
aF4549.2
aF4155.99
aF4413.54
aF4357.4400000000005
aF4508.4
aF4020.33
aF4423.74
aF4434.96
aa(lp2
I0
aI0
aI0
aI0
aI0
aI0
aI0
aI0
aI0
aI0
aI0
aI0
aI0
aI0
aaI00
a.(lp0
I101
aI2
aI-1
a(lp1
F4335.0
aF4480.86
aF4312.05
aF4169.76
aF4236.06
aF4614.4800000000005
aF4548.18
aF4143.24
aF4419.66
aF4327.86
aF4508.4
aF4092.2400000000002
aF4414.56
aF4421.1900000000005
aa(lp2
I0
aI0
aI0
aI0
aI0
aI0
aI0
aI0
aI0
aI0
aI0
aI0
aI0
aI0
aaI00
a.(lp0
I102
aI2
aI-1
a(lp1
F4335.0
aF4480.86
aF4312.05
aF4169.76
aF4236.06
aF4614.4800000000005
aF4548.18
aF4143.24
aF4419.66
aF4327.86
aF4508.4
aF4092.2400000000002
aF4414.56
aF4421.1900000000005
aa(lp2
I0
aI0
aI0
aI0
aI0
aI0
aI0
aI0
aI0
aI0
aI0
aI0
aI0
aI0
aaI00
a.(lp0
I103
aI2
aI-1
a(lp1
F4335.0
aF4480.86
aF4312.05
aF4169.76
aF4236.06
aF4614.4800000000005
aF4548.18
aF4143.24
aF4419.66
aF4327.86
aF4508.4
aF4092.2400000000002
aF4414.56
aF4421.1900000000005
aa(lp2
I0
aI0
aI0
aI0
aI0
aI0
aI0
aI0
aI0
aI0
aI0
aI0
aI0
aI0
aaI00
a.(lp0
I104
aI2
aI-1
a(lp1
F4335.0
aF4480.86
aF4312.05
aF4169.76
aF4236.06
aF4614.4800000000005
aF4548.18
aF4143.24
aF4419.66
aF4327.86
aF4508.4
aF4092.2400000000002
aF4414.56
aF4421.1900000000005
aa(lp2
I0
aI0
aI0
aI0
aI0
aI0
aI0
aI0
aI0
aI0
aI0
aI0
aI0
aI0
aaI00
a.(lp0
I105
aI2
aI-1
a(lp1
F4335.0
aF4480.86
aF4312.05
aF4169.76
aF4236.06
aF4614.4800000000005
aF4548.18
aF4143.24
aF4419.66
aF4327.86
aF4508.4
aF4092.2400000000002
aF4414.56
aF4421.1900000000005
aa(lp2
I0
aI0
aI0
aI0
aI0
aI0
aI0
aI0
aI0
aI0
aI0
aI0
aI0
aI0
aaI00
a.(lp0
I106
aI2
aI-1
a(lp1
F4335.0
aF4480.86
aF4312.05
aF4169.76
aF4236.06
aF4614.4800000000005
aF4548.18
aF4143.24
aF4419.66
aF4327.86
aF4508.4
aF4092.2400000000002
aF4414.56
aF4421.1900000000005
aa(lp2
I0
aI0
aI0
aI0
aI0
aI0
aI0
aI0
aI0
aI0
aI0
aI0
aI0
aI0
aaI00
a.(lp0
I107
aI2
aI-1
a(lp1
F4335.0
aF4480.86
aF4312.05
aF4169.76
aF4236.06
aF4614.4800000000005
aF4548.18
aF4143.24
aF4419.66
aF4327.86
aF4508.4
aF4092.2400000000002
aF4414.56
aF4421.1900000000005
aa(lp2
I0
aI0
aI0
aI0
aI0
aI0
aI0
aI0
aI0
aI0
aI0
aI0
aI0
aI0
aaI00
a.(lp0
I108
aI2
aI-1
a(lp1
F4335.0
aF4480.86
aF4312.05
aF4169.76
aF4236.06
aF4614.4800000000005
aF4548.18
aF4143.24
aF4419.66
aF4327.86
aF4508.4
aF4092.2400000000002
aF4414.56
aF4421.1900000000005
aa(lp2
I0
aI0
aI0
aI0
aI0
aI0
aI0
aI0
aI0
aI0
aI0
aI0
aI0
aI0
aaI00
a.(lp0
I109
aI2
aI-1
a(lp1
F4477.8
aF4592.04
aF4466.07
aF4171.8
aF4355.4
aF4654.26
aF4552.77
aF4275.33
aF4547.67
aF4407.93
aF4614.4800000000005
aF4394.67
aF4540.53
aF4584.9
aa(lp2
I0
aI0
aI0
aI0
aI0
aI0
aI0
aI0
aI0
aI0
aI0
aI0
aI0
aI0
aaI00
a.(lp0
I110
aI2
aI-1
a(lp1
F4477.8
aF4592.04
aF4466.07
aF4171.8
aF4355.4
aF4654.26
aF4552.77
aF4275.33
aF4547.67
aF4407.93
aF4614.4800000000005
aF4394.67
aF4540.53
aF4584.9
aa(lp2
I0
aI0
aI0
aI0
aI0
aI0
aI0
aI0
aI0
aI0
aI0
aI0
aI0
aI0
aaI00
a.(lp0
I111
aI2
aI-1
a(lp1
F4477.8
aF4592.04
aF4466.07
aF4171.8
aF4355.4
aF4654.26
aF4552.77
aF4275.33
aF4547.67
aF4407.93
aF4614.4800000000005
aF4394.67
aF4540.53
aF4584.9
aa(lp2
I0
aI0
aI0
aI0
aI0
aI0
aI0
aI0
aI0
aI0
aI0
aI0
aI0
aI0
aaI00
a.(lp0
I112
aI2
aI-1
a(lp1
F4477.8
aF4592.04
aF4466.07
aF4171.8
aF4355.4
aF4654.26
aF4552.77
aF4275.33
aF4547.67
aF4407.93
aF4614.4800000000005
aF4394.67
aF4540.53
aF4584.9
aa(lp2
I0
aI0
aI0
aI0
aI0
aI0
aI0
aI0
aI0
aI0
aI0
aI0
aI0
aI0
aaI00
a.(lp0
I113
aI2
aI-1
a(lp1
F4477.8
aF4592.04
aF4466.07
aF4171.8
aF4355.4
aF4654.26
aF4552.77
aF4275.33
aF4547.67
aF4407.93
aF4614.4800000000005
aF4394.67
aF4540.53
aF4584.9
aa(lp2
I0
aI0
aI0
aI0
aI0
aI0
aI0
aI0
aI0
aI0
aI0
aI0
aI0
aI0
aaI00
a.(lp0
I114
aI2
aI-1
a(lp1
F4477.8
aF4592.04
aF4466.07
aF4171.8
aF4355.4
aF4654.26
aF4552.77
aF4275.33
aF4547.67
aF4407.93
aF4614.4800000000005
aF4394.67
aF4540.53
aF4584.9
aa(lp2
I0
aI0
aI0
aI0
aI0
aI0
aI0
aI0
aI0
aI0
aI0
aI0
aI0
aI0
aaI00
a.(lp0
I115
aI2
aI-1
a(lp1
F4477.8
aF4592.04
aF4466.07
aF4171.8
aF4355.4
aF4654.26
aF4552.77
aF4275.33
aF4547.67
aF4407.93
aF4614.4800000000005
aF4394.67
aF4540.53
aF4584.9
aa(lp2
I0
aI0
aI0
aI0
aI0
aI0
aI0
aI0
aI0
aI0
aI0
aI0
aI0
aI0
aaI00
a.(lp0
I116
aI2
aI-1
a(lp1
F4477.8
aF4592.04
aF4466.07
aF4171.8
aF4355.4
aF4654.26
aF4552.77
aF4275.33
aF4547.67
aF4407.93
aF4614.4800000000005
aF4394.67
aF4540.53
aF4584.9
aa(lp2
I0
aI0
aI0
aI0
aI0
aI0
aI0
aI0
aI0
aI0
aI0
aI0
aI0
aI0
aaI00
a.(lp0
I117
aI2
aI-1
a(lp1
F4547.67
aF4628.25
aF4564.5
aF4153.95
aF4423.2300000000005
aF4656.3
aF4553.79
aF4336.53
aF4590.0
aF4464.54
aF4649.16
aF4472.7
aF4572.15
aF4686.39
aa(lp2
I0
aI0
aI0
aI0
aI0
aI0
aI0
aI0
aI0
aI0
aI0
aI0
aI0
aI0
aaI00
a.(lp0
I118
aI2
aI-1
a(lp1
F4547.67
aF4628.25
aF4564.5
aF4153.95
aF4423.2300000000005
aF4656.3
aF4553.79
aF4336.53
aF4590.0
aF4464.54
aF4649.16
aF4472.7
aF4572.15
aF4686.39
aa(lp2
I0
aI0
aI0
aI0
aI0
aI0
aI0
aI0
aI0
aI0
aI0
aI0
aI0
aI0
aaI00
a.(lp0
I119
aI2
aI-1
a(lp1
F4547.67
aF4628.25
aF4564.5
aF4153.95
aF4423.2300000000005
aF4656.3
aF4553.79
aF4336.53
aF4590.0
aF4464.54
aF4649.16
aF4472.7
aF4572.15
aF4686.39
aa(lp2
I0
aI0
aI0
aI0
aI0
aI0
aI0
aI0
aI0
aI0
aI0
aI0
aI0
aI0
aaI00
a.(lp0
I120
aI2
aI-1
a(lp1
F4547.67
aF4628.25
aF4564.5
aF4153.95
aF4423.2300000000005
aF4656.3
aF4553.79
aF4336.53
aF4590.0
aF4464.54
aF4649.16
aF4472.7
aF4572.15
aF4686.39
aa(lp2
I0
aI0
aI0
aI0
aI0
aI0
aI0
aI0
aI0
aI0
aI0
aI0
aI0
aI0
aaI00
a.(lp0
I121
aI2
aI-1
a(lp1
F4547.67
aF4628.25
aF4564.5
aF4153.95
aF4423.2300000000005
aF4656.3
aF4553.79
aF4336.53
aF4590.0
aF4464.54
aF4649.16
aF4472.7
aF4572.15
aF4686.39
aa(lp2
I0
aI0
aI0
aI0
aI0
aI0
aI0
aI0
aI0
aI0
aI0
aI0
aI0
aI0
aaI00
a.(lp0
I122
aI2
aI-1
a(lp1
F4547.67
aF4628.25
aF4564.5
aF4153.95
aF4423.2300000000005
aF4656.3
aF4553.79
aF4336.53
aF4590.0
aF4464.54
aF4649.16
aF4472.7
aF4572.15
aF4686.39
aa(lp2
I0
aI0
aI0
aI0
aI0
aI0
aI0
aI0
aI0
aI0
aI0
aI0
aI0
aI0
aaI00
a.(lp0
I123
aI2
aI-1
a(lp1
F4547.67
aF4628.25
aF4564.5
aF4153.95
aF4423.2300000000005
aF4656.3
aF4553.79
aF4336.53
aF4590.0
aF4464.54
aF4649.16
aF4472.7
aF4572.15
aF4686.39
aa(lp2
I0
aI0
aI0
aI0
aI0
aI0
aI0
aI0
aI0
aI0
aI0
aI0
aI0
aI0
aaI00
a.(lp0
I124
aI2
aI-1
a(lp1
F4547.67
aF4628.25
aF4564.5
aF4153.95
aF4423.2300000000005
aF4656.3
aF4553.79
aF4336.53
aF4590.0
aF4464.54
aF4649.16
aF4472.7
aF4572.15
aF4686.39
aa(lp2
I0
aI0
aI0
aI0
aI0
aI0
aI0
aI0
aI0
aI0
aI0
aI0
aI0
aI0
aaI00
a.(lp0
I125
aI2
aI-1
a(lp1
F4453.32
aF4529.31
aF4468.11
aF4132.02
aF4321.74
aF4621.11
aF4548.6900000000005
aF4237.59
aF4484.43
aF4381.92
aF4557.87
aF4109.07
aF4465.05
aF4586.9400000000005
aa(lp2
I0
aI0
aI0
aI0
aI0
aI0
aI0
aI0
aI0
aI0
aI0
aI0
aI0
aI0
aaI00
a.(lp0
I126
aI2
aI-1
a(lp1
F4453.32
aF4529.31
aF4468.11
aF4132.02
aF4321.74
aF4621.11
aF4548.6900000000005
aF4237.59
aF4484.43
aF4381.92
aF4557.87
aF4109.07
aF4465.05
aF4586.9400000000005
aa(lp2
I0
aI0
aI0
aI0
aI0
aI0
aI0
aI0
aI0
aI0
aI0
aI0
aI0
aI0
aaI00
a.(lp0
I127
aI2
aI-1
a(lp1
F4453.32
aF4529.31
aF4468.11
aF4132.02
aF4321.74
aF4621.11
aF4548.6900000000005
aF4237.59
aF4484.43
aF4381.92
aF4557.87
aF4109.07
aF4465.05
aF4586.9400000000005
aa(lp2
I0
aI0
aI0
aI0
aI0
aI0
aI0
aI0
aI0
aI0
aI0
aI0
aI0
aI0
aaI00
a.(lp0
I128
aI2
aI-1
a(lp1
F4453.32
aF4529.31
aF4468.11
aF4132.02
aF4321.74
aF4621.11
aF4548.6900000000005
aF4237.59
aF4484.43
aF4381.92
aF4557.87
aF4109.07
aF4465.05
aF4586.9400000000005
aa(lp2
I0
aI0
aI0
aI0
aI0
aI0
aI0
aI0
aI0
aI0
aI0
aI0
aI0
aI0
aaI00
a.(lp0
I0
aI2
aI-1
a(lp1
F4453.32
aF4529.31
aF4468.11
aF4132.02
aF4321.74
aF4621.11
aF4548.6900000000005
aF4237.59
aF4484.43
aF4381.92
aF4557.87
aF4109.07
aF4465.05
aF4586.9400000000005
aa(lp2
I0
aI0
aI0
aI0
aI0
aI0
aI0
aI0
aI0
aI0
aI0
aI0
aI0
aI0
aaI00
a.(lp0
I1
aI2
aI-1
a(lp1
F4453.32
aF4529.31
aF4468.11
aF4132.02
aF4321.74
aF4621.11
aF4548.6900000000005
aF4237.59
aF4484.43
aF4381.92
aF4557.87
aF4109.07
aF4465.05
aF4586.9400000000005
aa(lp2
I0
aI0
aI0
aI0
aI0
aI0
aI0
aI0
aI0
aI0
aI0
aI0
aI0
aI0
aaI00
a.(lp0
I2
aI2
aI-1
a(lp1
F4453.32
aF4529.31
aF4468.11
aF4132.02
aF4321.74
aF4621.11
aF4548.6900000000005
aF4237.59
aF4484.43
aF4381.92
aF4557.87
aF4109.07
aF4465.05
aF4586.9400000000005
aa(lp2
I0
aI0
aI0
aI0
aI0
aI0
aI0
aI0
aI0
aI0
aI0
aI0
aI0
aI0
aaI00
a.(lp0
I3
aI2
aI-1
a(lp1
F4453.32
aF4529.31
aF4468.11
aF4132.02
aF4321.74
aF4621.11
aF4548.6900000000005
aF4237.59
aF4484.43
aF4381.92
aF4557.87
aF4109.07
aF4465.05
aF4586.9400000000005
aa(lp2
I0
aI0
aI0
aI0
aI0
aI0
aI0
aI0
aI0
aI0
aI0
aI0
aI0
aI0
aaI00
a.(lp0
I4
aI2
aI-1
a(lp1
F4375.8
aF4397.7300000000005
aF4367.64
aF4170.27
aF4190.16
aF4605.3
aF4547.67
aF4143.75
aF4399.77
aF4211.07
aF4509.93
aF3936.1800000000003
aF4315.62
aF4493.1
aa(lp2
I0
aI0
aI0
aI0
aI0
aI0
aI0
aI0
aI0
aI0
aI0
aI0
aI0
aI0
aaI00
a.(lp0
I5
aI2
aI-1
a(lp1
F4375.8
aF4397.7300000000005
aF4367.64
aF4170.27
aF4190.16
aF4605.3
aF4547.67
aF4143.75
aF4399.77
aF4211.07
aF4509.93
aF3936.1800000000003
aF4315.62
aF4493.1
aa(lp2
I0
aI0
aI0
aI0
aI0
aI0
aI0
aI0
aI0
aI0
aI0
aI0
aI0
aI0
aaI00
a.(lp0
I6
aI2
aI-1
a(lp1
F4375.8
aF4397.7300000000005
aF4367.64
aF4170.27
aF4190.16
aF4605.3
aF4547.67
aF4143.75
aF4399.77
aF4211.07
aF4509.93
aF3936.1800000000003
aF4315.62
aF4493.1
aa(lp2
I0
aI0
aI0
aI0
aI0
aI0
aI0
aI0
aI0
aI0
aI0
aI0
aI0
aI0
aaI00
a.(lp0
I7
aI2
aI-1
a(lp1
F4375.8
aF4397.7300000000005
aF4367.64
aF4170.27
aF4190.16
aF4605.3
aF4547.67
aF4143.75
aF4399.77
aF4211.07
aF4509.93
aF3936.1800000000003
aF4315.62
aF4493.1
aa(lp2
I0
aI0
aI0
aI0
aI0
aI0
aI0
aI0
aI0
aI0
aI0
aI0
aI0
aI0
aaI00
a.(lp0
I8
aI2
aI-1
a(lp1
F4375.8
aF4397.7300000000005
aF4367.64
aF4170.27
aF4190.16
aF4605.3
aF4547.67
aF4143.75
aF4399.77
aF4211.07
aF4509.93
aF3936.1800000000003
aF4315.62
aF4493.1
aa(lp2
I0
aI0
aI0
aI0
aI0
aI0
aI0
aI0
aI0
aI0
aI0
aI0
aI0
aI0
aaI00
a.(lp0
I9
aI2
aI-1
a(lp1
F4375.8
aF4397.7300000000005
aF4367.64
aF4170.27
aF4190.16
aF4605.3
aF4547.67
aF4143.75
aF4399.77
aF4211.07
aF4509.93
aF3936.1800000000003
aF4315.62
aF4493.1
aa(lp2
I0
aI0
aI0
aI0
aI0
aI0
aI0
aI0
aI0
aI0
aI0
aI0
aI0
aI0
aaI00
a.(lp0
I10
aI2
aI-1
a(lp1
F4375.8
aF4397.7300000000005
aF4367.64
aF4170.27
aF4190.16
aF4605.3
aF4547.67
aF4143.75
aF4399.77
aF4211.07
aF4509.93
aF3936.1800000000003
aF4315.62
aF4493.1
aa(lp2
I0
aI0
aI0
aI0
aI0
aI0
aI0
aI0
aI0
aI0
aI0
aI0
aI0
aI0
aaI00
a.(lp0
I11
aI2
aI0
a(lp1
F4375.8
aF4397.7300000000005
aF4367.64
aF4170.27
aF4190.16
aF4605.3
aF4547.67
aF4143.75
aF4399.77
aF4211.07
aF4509.93
aF3936.1800000000003
aF4315.62
aF4493.1
aa(lp2
I0
aI0
aI0
aI0
aI0
aI0
aI0
aI0
aI0
aI0
aI0
aI0
aI0
aI0
aaI00
a.(lp0
I12
aI2
aI-1
a(lp1
F4460.97
aF4430.37
aF4430.88
aF4350.81
aF4225.35
aF4630.29
aF4553.28
aF4209.54
aF4478.31
aF4236.57
aF4645.08
aF4303.38
aF4326.84
aF4575.72
aa(lp2
I0
aI0
aI0
aI0
aI0
aI0
aI0
aI0
aI0
aI0
aI0
aI0
aI0
aI0
aaI00
a.(lp0
I13
aI2
aI-1
a(lp1
F4460.97
aF4430.37
aF4430.88
aF4350.81
aF4225.35
aF4630.29
aF4553.28
aF4209.54
aF4478.31
aF4236.57
aF4645.08
aF4303.38
aF4326.84
aF4575.72
aa(lp2
I0
aI0
aI0
aI0
aI0
aI0
aI0
aI0
aI0
aI0
aI0
aI0
aI0
aI0
aaI00
a.(lp0
I14
aI2
aI-1
a(lp1
F4460.97
aF4430.37
aF4430.88
aF4350.81
aF4225.35
aF4630.29
aF4553.28
aF4209.54
aF4478.31
aF4236.57
aF4645.08
aF4303.38
aF4326.84
aF4575.72
aa(lp2
I0
aI0
aI0
aI0
aI0
aI0
aI0
aI0
aI0
aI0
aI0
aI0
aI0
aI0
aaI00
a.(lp0
I15
aI2
aI-1
a(lp1
F4460.97
aF4430.37
aF4430.88
aF4350.81
aF4225.35
aF4630.29
aF4553.28
aF4209.54
aF4478.31
aF4236.57
aF4645.08
aF4303.38
aF4326.84
aF4575.72
aa(lp2
I0
aI0
aI0
aI0
aI0
aI0
aI0
aI0
aI0
aI0
aI0
aI0
aI0
aI0
aaI00
a.(lp0
I16
aI2
aI0
a(lp1
F4460.97
aF4430.37
aF4430.88
aF4350.81
aF4225.35
aF4630.29
aF4553.28
aF4209.54
aF4478.31
aF4236.57
aF4645.08
aF4303.38
aF4326.84
aF4575.72
aa(lp2
I0
aI0
aI0
aI0
aI0
aI0
aI0
aI0
aI0
aI0
aI0
aI0
aI0
aI0
aaI00
a.(lp0
I17
aI2
aI1
a(lp1
F4460.97
aF4430.37
aF4430.88
aF4350.81
aF4225.35
aF4630.29
aF4553.28
aF4209.54
aF4478.31
aF4236.57
aF4645.08
aF4303.38
aF4326.84
aF4575.72
aa(lp2
I0
aI0
aI0
aI0
aI0
aI0
aI0
aI0
aI0
aI0
aI0
aI0
aI0
aI0
aaI00
a.(lp0
I18
aI2
aI1
a(lp1
F4460.97
aF4430.37
aF4430.88
aF4350.81
aF4225.35
aF4630.29
aF4553.28
aF4209.54
aF4478.31
aF4236.57
aF4645.08
aF4303.38
aF4326.84
aF4575.72
aa(lp2
I0
aI0
aI0
aI0
aI0
aI0
aI0
aI0
aI0
aI0
aI0
aI0
aI0
aI0
aaI00
a.(lp0
I19
aI2
aI1
a(lp1
F4460.97
aF4430.37
aF4430.88
aF4350.81
aF4225.35
aF4630.29
aF4553.28
aF4209.54
aF4478.31
aF4236.57
aF4645.08
aF4303.38
aF4326.84
aF4575.72
aa(lp2
I0
aI0
aI0
aI0
aI0
aI0
aI0
aI0
aI0
aI0
aI0
aI0
aI0
aI0
aaI00
a.(lp0
I20
aI2
aI1
a(lp1
F4477.8
aF4517.58
aF4420.68
aF4732.29
aF4257.99
aF4623.66
aF4551.24
aF4345.71
aF4606.32
aF4443.12
aF4897.53
aF4667.52
aF4467.09
aF4588.9800000000005
aa(lp2
I0
aI0
aI0
aI0
aI0
aI0
aI0
aI0
aI0
aI0
aI0
aI0
aI0
aI0
aaI00
a.(lp0
I21
aI2
aI1
a(lp1
F4477.8
aF4517.58
aF4420.68
aF4732.29
aF4257.99
aF4623.66
aF4551.24
aF4345.71
aF4606.32
aF4443.12
aF4897.53
aF4667.52
aF4467.09
aF4588.9800000000005
aa(lp2
I0
aI0
aI0
aI0
aI0
aI0
aI0
aI0
aI0
aI0
aI0
aI0
aI0
aI0
aaI00
a.(lp0
I22
aI2
aI-1
a(lp1
F4477.8
aF4517.58
aF4420.68
aF4732.29
aF4257.99
aF4623.66
aF4551.24
aF4345.71
aF4606.32
aF4443.12
aF4897.53
aF4667.52
aF4467.09
aF4588.9800000000005
aa(lp2
I0
aI0
aI0
aI0
aI0
aI0
aI0
aI0
aI0
aI0
aI0
aI0
aI0
aI0
aaI00
a.(lp0
I23
aI2
aI-3
a(lp1
F4477.8
aF4517.58
aF4420.68
aF4732.29
aF4257.99
aF4623.66
aF4551.24
aF4345.71
aF4606.32
aF4443.12
aF4897.53
aF4667.52
aF4467.09
aF4588.9800000000005
aa(lp2
I0
aI0
aI0
aI0
aI0
aI0
aI0
aI0
aI0
aI0
aI0
aI0
aI0
aI0
aaI00
a.(lp0
I24
aI2
aI-2
a(lp1
F4269.72
aF4410.99
aF4163.64
aF5232.6
aF4098.36
aF4566.54
aF4540.02
aF4345.2
aF4588.9800000000005
aF4522.17
aF5216.28
aF4538.49
aF4426.8
aF4371.21
aa(lp2
I0
aI0
aI0
aI0
aI0
aI0
aI0
aI0
aI0
aI0
aI0
aI0
aI0
aI0
aaI00
a.(lp0
I25
aI2
aI0
a(lp1
F4037.67
aF4183.53
aF3858.66
aF5715.57
aF3895.38
aF4512.4800000000005
aF4531.35
aF4208.52
aF4474.74
aF4484.9400000000005
aF5545.74
aF4210.56
aF4179.96
aF4137.63
aa(lp2
I0
aI0
aI0
aI0
aI0
aI0
aI0
aI0
aI0
aI0
aI0
aI0
aI0
aI0
aaI00
a.(lp0
I26
aI2
aI1
a(lp1
F3855.6
aF3983.61
aF3615.39
aF6204.66
aF3746.46
aF4482.39
aF4524.72
aF4165.17
aF4469.64
aF4533.39
aF5805.33
aF4026.96
aF3958.11
aF3956.58
aa(lp2
I0
aI0
aI0
aI0
aI0
aI0
aI0
aI0
aI0
aI0
aI0
aI0
aI0
aI0
aaI00
a.(lp0
I27
aI2
aI1
a(lp1
F3842.34
aF3944.34
aF3577.65
aF6620.82
aF3743.4
aF4496.67
aF4525.2300000000005
aF4313.07
aF4623.66
aF4860.81
aF6100.62
aF4185.06
aF3969.33
aF3929.04
aa(lp2
I0
aI0
aI0
aI0
aI0
aI0
aI0
aI0
aI0
aI0
aI0
aI0
aI0
aI0
aaI00
a.(lp0
I28
aI2
aI1
a(lp1
F3885.69
aF3923.94
aF3609.78
aF6875.31
aF3766.86
aF4491.06
aF4527.27
aF4432.92
aF4727.7
aF5268.81
aF6316.86
aF4626.21
aF4008.09
aF3976.98
aa(lp2
I0
aI0
aI0
aI0
aI0
aI0
aI0
aI0
aI0
aI0
aI0
aI0
aI0
aI0
aaI00
a.(lp0
I29
aI2
aI0
a(lp1
F3643.44
aF3738.81
aF3328.77
aF7204.26
aF3580.71
aF4418.64
aF4520.64
aF4341.12
aF4627.74
aF5362.14
aF6275.04
aF4713.93
aF3836.2200000000003
aF3761.76
aa(lp2
I0
aI0
aI0
aI0
aI0
aI0
aI0
aI0
aI0
aI0
aI0
aI0
aI0
aI0
aaI00
a.(lp0
I30
aI2
aI-1
a(lp1
F3401.7000000000003
aF3599.58
aF3025.32
aF7566.360000000001
aF3428.2200000000003
aF4372.74
aF4515.03
aF4202.4
aF4497.6900000000005
aF5371.32
aF6166.41
aF4306.95
aF3691.89
aF3521.04
aa(lp2
I0
aI0
aI0
aI0
aI0
aI0
aI0
aI0
aI0
aI0
aI0
aI0
aI0
aI0
aaI00
a.(lp0
I31
aI2
aI-1
a(lp1
F3443.52
aF3517.98
aF3038.58
aF7589.31
aF3405.78
aF4382.9400000000005
aF4514.01
aF4230.96
aF4528.29
aF5506.47
aF6128.16
aF4089.1800000000003
aF3639.87
aF3564.39
aa(lp2
I0
aI0
aI0
aI0
aI0
aI0
aI0
aI0
aI0
aI0
aI0
aI0
aI0
aI0
aaI00
a.(lp0
I32
aI2
aI-2
a(lp1
F3589.38
aF3482.28
aF3168.12
aF7538.82
aF3385.38
aF4409.46
aF4501.77
aF4355.91
aF4646.61
aF5642.64
aF6128.67
aF4266.15
aF3672.51
aF3732.1800000000003
aa(lp2
I0
aI0
aI0
aI0
aI0
aI0
aI0
aI0
aI0
aI0
aI0
aI0
aI0
aI0
aaI00
a.(lp0
I33
aI2
aI-1
a(lp1
F3657.7200000000003
aF3571.02
aF3161.4900000000002
aF7636.74
aF3377.2200000000003
aF4399.26
aF4477.8
aF4388.04
aF4672.11
aF5708.9400000000005
aF6095.01
aF4436.49
aF3747.9900000000002
aF3796.44
aa(lp2
I0
aI0
aI0
aI0
aI0
aI0
aI0
aI0
aI0
aI0
aI0
aI0
aI0
aI0
aaI00
a.(lp0
I34
aI2
aI-1
a(lp1
F3585.81
aF3578.16
aF3015.63
aF7623.99
aF3310.41
aF4379.88
aF4471.68
aF4286.04
aF4571.13
aF5619.6900000000005
aF6006.78
aF4365.6
aF3657.7200000000003
aF3711.78
aa(lp2
I0
aI0
aI0
aI0
aI0
aI0
aI0
aI0
aI0
aI0
aI0
aI0
aI0
aI0
aaI00
a.(lp0
I35
aI2
aI0
a(lp1
F3506.25
aF3538.38
aF2923.32
aF7577.07
aF3226.26
aF4426.29
aF4490.55
aF4202.91
aF4502.28
aF5554.41
aF5952.21
aF4250.34
aF3586.32
aF3635.79
aa(lp2
I0
aI0
aI0
aI0
aI0
aI0
aI0
aI0
aI0
aI0
aI0
aI0
aI0
aI0
aaI00
a.(lp0
I36
aI2
aI0
a(lp1
F3533.79
aF3584.79
aF2965.14
aF7590.33
aF3247.68
aF4474.2300000000005
aF4506.36
aF4275.33
aF4580.31
aF5687.52
aF5994.54
aF4258.5
aF3717.39
aF3640.89
aa(lp2
I0
aI0
aI0
aI0
aI0
aI0
aI0
aI0
aI0
aI0
aI0
aI0
aI0
aI0
aaI00
a.(lp0
I37
aI2
aI0
a(lp1
F3603.15
aF3600.6
aF3057.96
aF7607.16
aF3323.16
aF4468.62
aF4508.91
aF4383.45
aF4675.17
aF5819.61
aF6081.75
aF4377.84
aF3815.31
aF3672.0
aa(lp2
I0
aI0
aI0
aI0
aI0
aI0
aI0
aI0
aI0
aI0
aI0
aI0
aI0
aI0
aaI00
a.(lp0
I38
aI2
aI-1
a(lp1
F3589.89
aF3531.2400000000002
aF3062.55
aF7632.150000000001
aF3277.77
aF4445.67
aF4508.4
aF4340.1
aF4619.58
aF5782.38
aF6054.21
aF4250.85
aF3717.39
aF3663.33
aa(lp2
I0
aI0
aI0
aI0
aI0
aI0
aI0
aI0
aI0
aI0
aI0
aI0
aI0
aI0
aaI00
a.(lp0
I39
aI2
aI-1
a(lp1
F3490.44
aF3480.75
aF2960.55
aF7626.03
aF3154.86
aF4421.1900000000005
aF4507.38
aF4228.41
aF4511.97
aF5720.16
aF5919.57
aF4071.84
aF3575.1
aF3612.84
aa(lp2
I0
aI0
aI0
aI0
aI0
aI0
aI0
aI0
aI0
aI0
aI0
aI0
aI0
aI0
aaI00
a.(lp0
I40
aI2
aI-2
a(lp1
F3489.42
aF3554.7000000000003
aF2930.9700000000003
aF7600.53
aF3214.02
aF4416.09
aF4502.28
aF4267.17
aF4559.91
aF5805.33
aF5917.02
aF4303.89
aF3652.11
aF3631.71
aa(lp2
I0
aI0
aI0
aI0
aI0
aI0
aI0
aI0
aI0
aI0
aI0
aI0
aI0
aI0
aaI00
a.(lp0
I41
aI2
aI-1
a(lp1
F3614.88
aF3651.09
aF3007.4700000000003
aF7614.3
aF3357.33
aF4429.86
aF4497.6900000000005
aF4407.93
aF4694.55
aF5919.06
aF6037.38
aF4674.15
aF3843.36
aF3735.75
aa(lp2
I0
aI0
aI0
aI0
aI0
aI0
aI0
aI0
aI0
aI0
aI0
aI0
aI0
aI0
aaI00
a.(lp0
I42
aI2
aI-1
a(lp1
F3657.21
aF3619.98
aF3037.05
aF7600.02
aF3328.77
aF4424.25
aF4500.75
aF4415.58
aF4690.47
aF5928.24
aF6025.14
aF4577.76
aF3817.86
aF3798.48
aa(lp2
I0
aI0
aI0
aI0
aI0
aI0
aI0
aI0
aI0
aI0
aI0
aI0
aI0
aI0
aaI00
a.(lp0
I43
aI2
aI-1
a(lp1
F3572.04
aF3512.88
aF2986.05
aF7529.13
aF3218.1
aF4386.0
aF4507.89
aF4275.84
aF4554.3
aF5841.03
aF5874.6900000000005
aF4169.25
aF3648.03
aF3744.9300000000003
aa(lp2
I0
aI0
aI0
aI0
aI0
aI0
aI0
aI0
aI0
aI0
aI0
aI0
aI0
aI0
aaI00
a.(lp0
I44
aI2
aI0
a(lp1
F3515.43
aF3507.27
aF2926.38
aF7536.27
aF3203.31
aF4362.03
aF4510.95
aF4204.95
aF4498.2
aF5747.7
aF5791.56
aF3992.79
aF3675.57
aF3650.07
aa(lp2
I0
aI0
aI0
aI0
aI0
aI0
aI0
aI0
aI0
aI0
aI0
aI0
aI0
aI0
aaI00
a.(lp0
I45
aI2
aI0
a(lp1
F3622.02
aF3606.21
aF3005.43
aF7557.6900000000005
aF3297.15
aF4392.63
aF4514.52
aF4317.66
aF4613.46
aF5811.45
aF5853.78
aF4223.82
aF3833.67
aF3719.4300000000003
aa(lp2
I0
aI0
aI0
aI0
aI0
aI0
aI0
aI0
aI0
aI0
aI0
aI0
aI0
aI0
aaI00
a.(lp0
I46
aI2
aI0
a(lp1
F3744.9300000000003
aF3675.57
aF3142.11
aF7545.96
aF3399.15
aF4418.64
aF4519.11
aF4451.28
aF4728.21
aF5965.47
aF5922.63
aF4639.9800000000005
aF3880.08
aF3864.27
aa(lp2
I0
aI0
aI0
aI0
aI0
aI0
aI0
aI0
aI0
aI0
aI0
aI0
aI0
aI0
aaI00
a.(lp0
I47
aI2
aI-1
a(lp1
F3673.02
aF3641.4
aF3088.05
aF7540.860000000001
aF3371.1
aF4387.53
aF4518.09
aF4396.2
aF4653.75
aF5948.64
aF5839.5
aF4711.38
aF3830.61
aF3812.25
aa(lp2
I0
aI0
aI0
aI0
aI0
aI0
aI0
aI0
aI0
aI0
aI0
aI0
aI0
aI0
aaI00
a.(lp0
I48
aI2
aI-1
a(lp1
F3562.35
aF3541.44
aF2968.2000000000003
aF7497.51
aF3247.68
aF4356.42
aF4512.99
aF4237.59
aF4504.32
aF5794.11
aF5674.77
aF4373.76
aF3770.4300000000003
aF3690.87
aa(lp2
I0
aI0
aI0
aI0
aI0
aI0
aI0
aI0
aI0
aI0
aI0
aI0
aI0
aI0
aaI00
a.(lp0
I49
aI2
aI-1
a(lp1
F3600.09
aF3541.9500000000003
aF2991.15
aF7494.45
aF3236.46
aF4370.1900000000005
aF4511.46
aF4221.27
aF4507.89
aF5772.18
aF5594.7
aF4038.69
aF3776.55
aF3719.4300000000003
aa(lp2
I0
aI0
aI0
aI0
aI0
aI0
aI0
aI0
aI0
aI0
aI0
aI0
aI0
aI0
aaI00
a.(lp0
I50
aI2
aI-1
a(lp1
F3710.76
aF3664.35
aF3104.37
aF7504.14
aF3380.28
aF4403.85
aF4516.56
aF4364.58
aF4645.08
aF5919.06
aF5628.87
aF4095.3
aF3876.51
aF3840.81
aa(lp2
I0
aI0
aI0
aI0
aI0
aI0
aI0
aI0
aI0
aI0
aI0
aI0
aI0
aI0
aaI00
a.(lp0
I51
aI2
aI-1
a(lp1
F3770.4300000000003
aF3718.92
aF3178.32
aF7482.72
aF3474.63
aF4412.52
aF4519.11
aF4454.34
aF4715.97
aF6002.1900000000005
aF5676.3
aF4516.56
aF3946.38
aF3921.9
aa(lp2
I0
aI0
aI0
aI0
aI0
aI0
aI0
aI0
aI0
aI0
aI0
aI0
aI0
aI0
aaI00
a.(lp0
I52
aI2
aI-1
a(lp1
F3731.16
aF3638.34
aF3131.4
aF7470.99
aF3395.58
aF4383.96
aF4517.07
aF4356.42
aF4616.52
aF5900.1900000000005
aF5605.41
aF4640.49
aF3889.26
aF3870.9
aa(lp2
I0
aI0
aI0
aI0
aI0
aI0
aI0
aI0
aI0
aI0
aI0
aI0
aI0
aI0
aaI00
a.(lp0
I53
aI2
aI-1
a(lp1
F3645.48
aF3582.2400000000002
aF3038.07
aF7429.17
aF3306.84
aF4363.05
aF4516.05
aF4224.33
aF4495.14
aF5770.14
aF5486.58
aF4332.96
aF3808.6800000000003
aF3759.7200000000003
aa(lp2
I0
aI0
aI0
aI0
aI0
aI0
aI0
aI0
aI0
aI0
aI0
aI0
aI0
aI0
aaI00
a.(lp0
I54
aI2
aI-1
a(lp1
F3669.96
aF3628.65
aF3079.38
aF7413.87
aF3349.17
aF4378.86
aF4517.58
aF4254.93
aF4535.43
aF5780.34
aF5491.17
aF4142.22
aF3809.19
aF3786.75
aa(lp2
I0
aI0
aI0
aI0
aI0
aI0
aI0
aI0
aI0
aI0
aI0
aI0
aI0
aI0
aaI00
a.(lp0
I55
aI2
aI-1
a(lp1
F3790.83
aF3690.87
aF3202.29
aF7448.55
aF3426.69
aF4401.81
aF4522.17
aF4374.78
aF4651.71
aF5859.39
aF5556.45
aF4266.15
aF3879.06
aF3917.31
aa(lp2
I0
aI0
aI0
aI0
aI0
aI0
aI0
aI0
aI0
aI0
aI0
aI0
aI0
aI0
aaI00
a.(lp0
I56
aI2
aI-1
a(lp1
F3800.01
aF3712.29
aF3214.02
aF7436.82
aF3430.77
aF4405.38
aF4523.7
aF4398.75
aF4658.85
aF5871.12
aF5540.13
aF4381.92
aF3953.52
aF3933.12
aa(lp2
I0
aI0
aI0
aI0
aI0
aI0
aI0
aI0
aI0
aI0
aI0
aI0
aI0
aI0
aaI00
a.(lp0
I57
aI2
aI-1
a(lp1
F3713.82
aF3683.2200000000003
aF3144.66
aF7378.17
aF3375.18
aF4389.06
aF4520.13
aF4307.46
aF4561.4400000000005
aF5787.4800000000005
aF5449.35
aF4355.91
aF3922.41
aF3848.9700000000003
aa(lp2
I0
aI0
aI0
aI0
aI0
aI0
aI0
aI0
aI0
aI0
aI0
aI0
aI0
aI0
aaI00
a.(lp0
I58
aI2
aI-1
a(lp1
F3702.09
aF3666.9
aF3128.85
aF7352.67
aF3363.4500000000003
aF4378.35
aF4520.64
aF4258.5
aF4525.74
aF5733.42
aF5387.13
aF4405.89
aF3862.7400000000002
aF3839.79
aa(lp2
I0
aI0
aI0
aI0
aI0
aI0
aI0
aI0
aI0
aI0
aI0
aI0
aI0
aI0
aaI00
a.(lp0
I60
aI2
aI-1
a(lp1
F3805.11
aF3782.67
aF3246.15
aF7364.91
aF3508.8
aF4387.53
aF4524.72
aF4409.97
aF4665.99
aF5874.18
aF5442.21
aF4474.74
aF4050.9300000000003
aF3937.71
aa(lp2
I0
aI0
aI0
aI0
aI0
aI0
aI0
aI0
aI0
aI0
aI0
aI0
aI0
aI0
aaI00
a.(lp0
I62
aI2
aI-1
a(lp1
F3735.2400000000002
aF3674.04
aF3140.07
aF7293.0
aF3346.11
aF4339.59
aF4523.1900000000005
aF4216.17
aF4483.41
aF5642.13
aF5280.54
aF4096.32
aF3855.6
aF3829.08
aa(lp2
I0
aI0
aI0
aI0
aI0
aI0
aI0
aI0
aI0
aI0
aI0
aI0
aI0
aI0
aaI00
a.(lp0
I64
aI2
aI-1
a(lp1
F3892.32
aF3800.52
aF3318.57
aF7310.34
aF3531.2400000000002
aF4371.21
aF4530.33
aF4429.86
aF4694.04
aF5814.0
aF5430.4800000000005
aF4743.0
aF4095.3
aF3991.26
aa(lp2
I0
aI0
aI0
aI0
aI0
aI0
aI0
aI0
aI0
aI0
aI0
aI0
aI0
aI0
aaI00
a.(lp0
I67
aI2
aI-1
a(lp1
F3738.3
aF3691.38
aF3175.26
aF7223.64
aF3398.64
aF4333.47
aF4529.31
aF4212.09
aF4483.92
aF5587.05
aF5226.4800000000005
aF4055.52
aF3922.41
aF3828.57
aa(lp2
I0
aI0
aI0
aI0
aI0
aI0
aI0
aI0
aI0
aI0
aI0
aI0
aI0
aI0
aaI00
a.(lp0
I70
aI2
aI-1
a(lp1
F3922.92
aF3798.9900000000002
aF3371.61
aF7221.09
aF3523.59
aF4351.32
aF4529.31
aF4388.55
aF4628.76
aF5624.79
aF5352.45
aF4886.82
aF4073.37
aF4038.1800000000003
aa(lp2
I0
aI0
aI0
aI0
aI0
aI0
aI0
aI0
aI0
aI0
aI0
aI0
aI0
aI0
aaI00
a.(lp0
I72
aI2
aI-1
a(lp1
F3789.3
aF3729.63
aF3236.9700000000003
aF7172.64
aF3440.9700000000003
aF4334.49
aF4529.31
aF4220.25
aF4494.63
aF5470.77
aF5210.67
aF4085.1
aF3965.76
aF3857.13
aa(lp2
I0
aI0
aI0
aI0
aI0
aI0
aI0
aI0
aI0
aI0
aI0
aI0
aI0
aI0
aaI00
a.(lp0
I75
aI2
aI-1
a(lp1
F3894.87
aF3782.16
aF3369.57
aF7154.28
aF3541.9500000000003
aF4340.1
aF4530.33
aF4341.63
aF4587.45
aF5549.31
aF5284.62
aF4676.7
aF3992.28
aF4029.51
aa(lp2
I0
aI0
aI0
aI0
aI0
aI0
aI0
aI0
aI0
aI0
aI0
aI0
aI0
aI0
aaI00
a.(lp0
I78
aI2
aI-1
a(lp1
F3960.15
aF3826.53
aF3428.2200000000003
aF7142.55
aF3561.84
aF4353.36
aF4536.45
aF4365.6
aF4636.41
aF5482.5
aF5294.82
aF4392.12
aF4054.5
aF4047.87
aa(lp2
I0
aI0
aI0
aI0
aI0
aI0
aI0
aI0
aI0
aI0
aI0
aI0
aI0
aI0
aaI00
a.(lp0
I82
aI2
aI-1
a(lp1
F3929.55
aF3839.28
aF3410.88
aF7119.6
aF3573.06
aF4348.26
aF4532.88
aF4356.93
aF4625.1900000000005
aF5401.92
aF5358.06
aF4735.35
aF4091.73
aF4023.39
aa(lp2
I0
aI0
aI0
aI0
aI0
aI0
aI0
aI0
aI0
aI0
aI0
aI0
aI0
aI0
aaI00
a.(lp0
I84
aI2
aI-1
a(lp1
F3873.96
aF3793.38
aF3368.04
aF7053.81
aF3519.51
aF4312.56
aF4533.39
aF4293.18
aF4547.16
aF5373.36
aF5325.93
aF4310.52
aF4031.55
aF3971.88
aa(lp2
I0
aI0
aI0
aI0
aI0
aI0
aI0
aI0
aI0
aI0
aI0
aI0
aI0
aI0
aaI00
a.(lp0
I87
aI2
aI-1
a(lp1
F4011.66
aF3910.17
aF3504.7200000000003
aF7093.59
aF3646.5
aF4344.6900000000005
aF4536.96
aF4429.86
aF4694.04
aF5456.49
aF5388.66
aF4822.56
aF4148.85
aF4109.07
aa(lp2
I0
aI0
aI0
aI0
aI0
aI0
aI0
aI0
aI0
aI0
aI0
aI0
aI0
aI0
aaI00
a.(lp0
I89
aI2
aI-1
a(lp1
F3878.55
aF3764.82
aF3374.67
aF7002.3
aF3495.54
aF4290.63
aF4530.84
aF4232.49
aF4492.59
aF5250.45
aF5254.02
aF4483.41
aF4005.03
aF3958.11
aa(lp2
I0
aI0
aI0
aI0
aI0
aI0
aI0
aI0
aI0
aI0
aI0
aI0
aI0
aI0
aaI00
a.(lp0
I92
aI2
aI-1
a(lp1
F4064.19
aF3925.4700000000003
aF3582.75
aF7048.2
aF3709.7400000000002
aF4337.04
aF4535.9400000000005
aF4458.93
aF4714.95
aF5398.35
aF5401.41
aF4790.43
aF4217.7
aF4145.79
aa(lp2
I0
aI0
aI0
aI0
aI0
aI0
aI0
aI0
aI0
aI0
aI0
aI0
aI0
aI0
aaI00
a.(lp0
I95
aI2
aI-1
a(lp1
F3871.92
aF3803.07
aF3404.76
aF6974.76
aF3539.4
aF4292.16
aF4531.86
aF4218.21
aF4498.71
aF5187.72
aF5218.83
aF4198.32
aF4024.92
aF3924.4500000000003
aa(lp2
I0
aI0
aI0
aI0
aI0
aI0
aI0
aI0
aI0
aI0
aI0
aI0
aI0
aI0
aaI00
a.(lp0
I98
aI2
aI-1
a(lp1
F3989.2200000000003
aF3859.17
aF3523.59
aF6958.95
aF3613.35
aF4298.79
aF4534.41
aF4310.01
aF4562.97
aF5208.63
aF5299.92
aF4647.63
aF4096.83
aF4062.15
aa(lp2
I0
aI0
aI0
aI0
aI0
aI0
aI0
aI0
aI0
aI0
aI0
aI0
aI0
aI0
aaI00
a.(lp0
I100
aI2
aI-1
a(lp1
F3962.19
aF3873.96
aF3497.07
aF6956.91
aF3631.2000000000003
aF4295.22
aF4531.86
aF4279.41
aF4553.79
aF5154.57
aF5250.96
aF4449.24
aF4077.4500000000003
aF4039.2000000000003
aa(lp2
I0
aI0
aI0
aI0
aI0
aI0
aI0
aI0
aI0
aI0
aI0
aI0
aI0
aI0
aaI00
a.(lp0
I103
aI2
aI-1
a(lp1
F3908.13
aF3866.82
aF3461.88
aF6896.7300000000005
aF3601.62
aF4278.9
aF4529.82
aF4235.55
aF4497.18
aF5116.83
aF5224.4400000000005
aF4266.15
aF4109.07
aF3986.67
aa(lp2
I0
aI0
aI0
aI0
aI0
aI0
aI0
aI0
aI0
aI0
aI0
aI0
aI0
aI0
aaI00
a.(lp0
I105
aI2
aI-1
a(lp1
F4045.83
aF3972.9
aF3589.89
aF6928.86
aF3741.87
aF4312.05
aF4539.51
aF4375.8
aF4643.55
aF5208.63
aF5324.400000000001
aF4813.89
aF4218.72
aF4100.91
aa(lp2
I0
aI0
aI0
aI0
aI0
aI0
aI0
aI0
aI0
aI0
aI0
aI0
aI0
aI0
aaI00
a.(lp0
I108
aI2
aI0
a(lp1
F3924.4500000000003
aF3853.05
aF3494.01
aF6837.57
aF3609.27
aF4270.74
aF4532.37
aF4187.61
aF4463.52
aF5014.32
aF5167.83
aF4107.54
aF4035.12
aF3975.96
aa(lp2
I0
aI0
aI0
aI0
aI0
aI0
aI0
aI0
aI0
aI0
aI0
aI0
aI0
aI0
aaI00
a.(lp0
I110
aI2
aI-1
a(lp1
F4147.83
aF4024.92
aF3736.26
aF6868.68
aF3804.6
aF4320.21
aF4535.43
aF4437.0
aF4704.75
aF5167.32
aF5331.03
aF4805.7300000000005
aF4278.9
aF4230.45
aa(lp2
I0
aI0
aI0
aI0
aI0
aI0
aI0
aI0
aI0
aI0
aI0
aI0
aI0
aI0
aaI00
a.(lp0
I113
aI2
aI-1
a(lp1
F3960.15
aF3902.01
aF3555.21
aF6752.91
aF3660.27
aF4277.37
aF4530.84
aF4189.65
aF4465.56
aF4914.36
aF5128.05
aF4097.85
aF4081.02
aF4002.9900000000002
aa(lp2
I0
aI0
aI0
aI0
aI0
aI0
aI0
aI0
aI0
aI0
aI0
aI0
aI0
aI0
aaI00
a.(lp0
I105
aI2
aI-1
a(lp1
F4348.77
aF4370.1900000000005
aF4224.84
aF5843.07
aF4227.9
aF4268.7
aF4531.35
aF4364.58
aF4621.62
aF4511.97
aF4979.13
aF4568.58
aF4510.4400000000005
aF4471.17
aa(lp2
I0
aI0
aI0
aI0
aI0
aI0
aI0
aI0
aI0
aI0
aI0
aI0
aI0
aI0
aaI00
a.(lp0
I16
aI2
aI-1
a(lp1
F4313.58
aF4383.96
aF4242.6900000000005
aF5633.97
aF4237.59
aF4277.37
aF4530.84
aF4288.59
aF4566.54
aF4422.72
aF4875.09
aF4496.16
aF4524.72
aF4415.58
aa(lp2
I0
aI0
aI0
aI0
aI0
aI0
aI0
aI0
aI0
aI0
aI0
aI0
aI0
aI0
aaI00
a.(lp0
I57
aI2
aI-1
a(lp1
F4339.08
aF4417.11
aF4293.18
aF5431.5
aF4233.51
aF4277.88
aF4527.78
aF4248.81
aF4527.27
aF4352.34
aF4801.14
aF4314.09
aF4490.55
aF4428.84
aa(lp2
I0
aI0
aI0
aI0
aI0
aI0
aI0
aI0
aI0
aI0
aI0
aI0
aI0
aI0
aaI00
a.(lp0
I101
aI2
aI-1
a(lp1
F4352.85
aF4478.31
aF4336.02
aF5275.95
aF4277.88
aF4288.59
aF4523.7
aF4253.4
aF4511.46
aF4363.56
aF4766.46
aF4354.89
aF4544.61
aF4468.11
aa(lp2
I0
aI0
aI0
aI0
aI0
aI0
aI0
aI0
aI0
aI0
aI0
aI0
aI0
aI0
aaI00
a.(lp0
I18
aI2
aI-1
a(lp1
F4340.61
aF4467.09
aF4352.85
aF5047.9800000000005
aF4270.74
aF4304.91
aF4528.8
aF4204.4400000000005
aF4464.54
aF4340.1
aF4679.25
aF4133.04
aF4516.05
aF4467.6
aa(lp2
I0
aI0
aI0
aI0
aI0
aI0
aI0
aI0
aI0
aI0
aI0
aI0
aI0
aI0
aaI00
a.(lp0
I65
aI2
aI-1
a(lp1
F4411.5
aF4530.33
aF4429.35
aF5085.21
aF4314.09
aF4334.49
aF4530.33
aF4257.4800000000005
aF4532.37
aF4358.97
aF4638.45
aF4276.86
aF4568.58
aF4513.5
aa(lp2
I0
aI0
aI0
aI0
aI0
aI0
aI0
aI0
aI0
aI0
aI0
aI0
aI0
aI0
aaI00
a.(lp0
I114
aI2
aI-1
a(lp1
F4354.89
aF4499.22
aF4359.4800000000005
aF4910.79
aF4272.27
aF4319.1900000000005
aF4524.21
aF4176.39
aF4428.33
aF4359.4800000000005
aF4573.17
aF4282.47
aF4500.24
aF4468.11
aa(lp2
I0
aI0
aI0
aI0
aI0
aI0
aI0
aI0
aI0
aI0
aI0
aI0
aI0
aI0
aaI00
a.(lp0
I36
aI2
aI-1
a(lp1
F4389.57
aF4519.11
aF4384.9800000000005
aF4816.95
aF4297.26
aF4334.49
aF4526.76
aF4191.18
aF4457.91
aF4390.59
aF4565.01
aF4254.42
aF4540.53
aF4479.33
aa(lp2
I0
aI0
aI0
aI0
aI0
aI0
aI0
aI0
aI0
aI0
aI0
aI0
aI0
aI0
aaI00
a.(lp0
I48
aI2
aI-1
a(lp1
F4501.26
aF4625.1900000000005
aF4511.97
aF4817.46
aF4414.56
aF4355.91
aF4532.37
aF4339.59
aF4585.92
aF4519.62
aF4685.88
aF4640.49
aF4669.56
aF4634.88
aa(lp2
I0
aI0
aI0
aI0
aI0
aI0
aI0
aI0
aI0
aI0
aI0
aI0
aI0
aI0
aaI00
a.(lp0
I53
aI2
aI-1
a(lp1
F4455.36
aF4605.3
aF4463.01
aF4815.93
aF4403.85
aF4352.34
aF4529.82
aF4300.32
aF4551.24
aF4505.85
aF4652.7300000000005
aF4543.59
aF4631.31
aF4601.22
aa(lp2
I0
aI0
aI0
aI0
aI0
aI0
aI0
aI0
aI0
aI0
aI0
aI0
aI0
aI0
aaI00
a.(lp0
I58
aI2
aI-1
a(lp1
F4413.54
aF4581.33
aF4417.11
aF4787.37
aF4346.22
aF4347.75
aF4529.82
aF4234.02
aF4493.61
aF4419.66
aF4611.42
aF4241.67
aF4563.99
aF4535.43
aa(lp2
I0
aI0
aI0
aI0
aI0
aI0
aI0
aI0
aI0
aI0
aI0
aI0
aI0
aI0
aaI00
a.(lp0
I63
aI2
aI-1
a(lp1
F4368.66
aF4505.85
aF4387.53
aF4751.67
aF4309.5
aF4341.12
aF4526.76
aF4164.15
aF4426.8
aF4356.42
aF4546.65
aF3981.06
aF4480.86
aF4463.52
aa(lp2
I0
aI0
aI0
aI0
aI0
aI0
aI0
aI0
aI0
aI0
aI0
aI0
aI0
aI0
aaI00
a.(lp0
I99
aI2
aI-1
a(lp1
F4440.06
aF4578.27
aF4464.03
aF4759.32
aF4388.55
aF4356.42
aF4529.31
aF4255.95
aF4512.99
aF4438.02
aF4610.91
aF4355.4
aF4586.43
aF4565.01
aa(lp2
I0
aI0
aI0
aI0
aI0
aI0
aI0
aI0
aI0
aI0
aI0
aI0
aI0
aI0
aaI00
a.(lp0
I104
aI2
aI-1
a(lp1
F4380.9
aF4524.72
aF4407.42
aF4700.67
aF4324.29
aF4355.4
aF4530.84
aF4176.9
aF4443.63
aF4372.2300000000005
aF4548.6900000000005
aF4046.34
aF4537.9800000000005
aF4500.75
aa(lp2
I0
aI0
aI0
aI0
aI0
aI0
aI0
aI0
aI0
aI0
aI0
aI0
aI0
aI0
aaI00
a.(lp0
I109
aI2
aI0
a(lp1
F4374.78
aF4474.2300000000005
aF4389.06
aF4687.41
aF4304.4
aF4347.75
aF4526.25
aF4151.91
aF4425.78
aF4358.46
aF4526.76
aF3933.12
aF4493.1
aF4485.45
aa(lp2
I0
aI0
aI0
aI0
aI0
aI0
aI0
aI0
aI0
aI0
aI0
aI0
aI0
aI0
aaI00
a.(lp0
I114
aI2
aI-1
a(lp1
F4395.6900000000005
aF4472.1900000000005
aF4388.55
aF4709.85
aF4307.97
aF4356.93
aF4528.8
aF4162.62
aF4436.49
aF4361.01
aF4528.29
aF4104.4800000000005
aF4510.95
aF4476.78
aa(lp2
I0
aI0
aI0
aI0
aI0
aI0
aI0
aI0
aI0
aI0
aI0
aI0
aI0
aI0
aaI00
a.(lp0
I119
aI2
aI-1
a(lp1
F4380.9
aF4518.6
aF4410.99
aF4719.03
aF4345.71
aF4367.13
aF4527.78
aF4191.6900000000005
aF4465.05
aF4394.67
aF4543.59
aF4086.12
aF4539.51
aF4512.4800000000005
aa(lp2
I0
aI0
aI0
aI0
aI0
aI0
aI0
aI0
aI0
aI0
aI0
aI0
aI0
aI0
aaI00
a.(lp0
I124
aI2
aI-1
a(lp1
F4459.95
aF4554.81
aF4486.9800000000005
aF4716.99
aF4406.4
aF4376.31
aF4529.82
aF4263.6
aF4535.43
aF4451.79
aF4597.65
aF4321.2300000000005
aF4605.3
aF4583.88
aa(lp2
I0
aI0
aI0
aI0
aI0
aI0
aI0
aI0
aI0
aI0
aI0
aI0
aI0
aI0
aaI00
a.(lp0
I0
aI2
aI-1
a(lp1
F4515.54
aF4642.02
aF4533.39
aF4756.77
aF4487.49
aF4395.6900000000005
aF4533.9
aF4348.26
aF4620.6
aF4524.72
aF4665.4800000000005
aF4634.37
aF4703.22
aF4652.22
aa(lp2
I0
aI0
aI0
aI0
aI0
aI0
aI0
aI0
aI0
aI0
aI0
aI0
aI0
aI0
aaI00
a.(lp0
I5
aI2
aI-1
a(lp1
F4569.6
aF4674.15
aF4584.9
aF4750.14
aF4504.32
aF4396.2
aF4534.41
aF4396.71
aF4661.4
aF4574.7
aF4703.7300000000005
aF4620.09
aF4735.86
aF4708.32
aa(lp2
I0
aI0
aI0
aI0
aI0
aI0
aI0
aI0
aI0
aI0
aI0
aI0
aI0
aI0
aaI00
a.(lp0
I43
aI2
aI-1
a(lp1
F4414.56
aF4547.16
aF4457.91
aF4616.01
aF4383.45
aF4368.66
aF4526.76
aF4228.41
aF4479.84
aF4472.7
aF4590.51
aF4171.8
aF4592.55
aF4569.09
aa(lp2
I0
aI0
aI0
aI0
aI0
aI0
aI0
aI0
aI0
aI0
aI0
aI0
aI0
aI0
aaI00
a.(lp0
I47
aI2
aI-1
a(lp1
F4498.71
aF4617.54
aF4539.51
aF4632.84
aF4474.2300000000005
aF4389.57
aF4529.31
aF4327.86
aF4574.1900000000005
aF4559.91
aF4673.13
aF4635.9
aF4670.58
aF4668.54
aa(lp2
I0
aI0
aI0
aI0
aI0
aI0
aI0
aI0
aI0
aI0
aI0
aI0
aI0
aI0
aaI00
a.(lp0
I53
aI2
aI-1
a(lp1
F4367.13
aF4510.4400000000005
aF4404.87
aF4586.43
aF4339.08
aF4359.99
aF4525.2300000000005
aF4159.05
aF4417.11
aF4375.8
aF4543.59
aF4225.35
aF4514.01
aF4510.4400000000005
aa(lp2
I0
aI0
aI0
aI0
aI0
aI0
aI0
aI0
aI0
aI0
aI0
aI0
aI0
aI0
aaI00
a.(lp0
I58
aI2
aI-1
a(lp1
F4395.18
aF4519.11
aF4426.8
aF4582.35
aF4361.52
aF4379.37
aF4527.78
aF4176.9
aF4440.57
aF4393.65
aF4550.22
aF4206.99
aF4527.78
aF4506.36
aa(lp2
I0
aI0
aI0
aI0
aI0
aI0
aI0
aI0
aI0
aI0
aI0
aI0
aI0
aI0
aaI00
a.(lp0
I63
aI2
aI-1
a(lp1
F4413.54
aF4543.08
aF4445.16
aF4592.04
aF4365.6
aF4388.04
aF4528.8
aF4200.87
aF4474.2300000000005
aF4408.4400000000005
aF4545.12
aF4224.33
aF4547.67
aF4526.25
aa(lp2
I0
aI0
aI0
aI0
aI0
aI0
aI0
aI0
aI0
aI0
aI0
aI0
aI0
aI0
aaI00
a.(lp0
I68
aI2
aI-1
a(lp1
F4462.5
aF4594.08
aF4488.0
aF4616.52
aF4435.47
aF4404.36
aF4528.8
aF4263.6
aF4537.47
aF4478.31
aF4603.26
aF4173.84
aF4590.0
aF4577.76
aa(lp2
I0
aI0
aI0
aI0
aI0
aI0
aI0
aI0
aI0
aI0
aI0
aI0
aI0
aI0
aaI00
a.(lp0
I74
aI2
aI-1
a(lp1
F4543.08
aF4671.09
aF4578.27
aF4606.83
aF4503.3
aF4416.6
aF4536.45
aF4365.6
aF4618.05
aF4566.03
aF4697.61
aF4485.96
aF4709.34
aF4697.1
aa(lp2
I0
aI0
aI0
aI0
aI0
aI0
aI0
aI0
aI0
aI0
aI0
aI0
aI0
aI0
aaI00
a.(lp0
I79
aI2
aI0
a(lp1
F4488.51
aF4649.16
aF4520.64
aF4611.42
aF4460.46
aF4399.26
aF4531.86
aF4308.4800000000005
aF4559.4
aF4508.4
aF4649.16
aF4324.29
aF4643.04
aF4645.59
aa(lp2
I0
aI0
aI0
aI0
aI0
aI0
aI0
aI0
aI0
aI0
aI0
aI0
aI0
aI0
aaI00
a.(lp0
I118
aI2
aI-1
a(lp1
F4384.47
aF4544.61
aF4420.17
aF4547.16
aF4360.5
aF4396.71
aF4531.35
aF4180.47
aF4450.77
aF4387.53
aF4559.91
aF4045.32
aF4503.81
aF4522.68
aa(lp2
I0
aI0
aI0
aI0
aI0
aI0
aI0
aI0
aI0
aI0
aI0
aI0
aI0
aI0
aaI00
a.(lp0
I123
aI2
aI-1
a(lp1
F4437.51
aF4586.43
aF4482.39
aF4525.2300000000005
aF4393.65
aF4409.97
aF4531.86
aF4234.02
aF4508.4
aF4460.46
aF4601.7300000000005
aF4240.65
aF4567.56
aF4593.57
aa(lp2
I0
aI0
aI0
aI0
aI0
aI0
aI0
aI0
aI0
aI0
aI0
aI0
aI0
aI0
aaI00
a.(lp0
I128
aI2
aI0
a(lp1
F4519.11
aF4632.84
aF4565.01
aF4556.85
aF4459.95
aF4423.74
aF4531.86
aF4327.35
aF4588.9800000000005
aF4533.9
aF4683.84
aF4577.25
aF4656.3
aF4686.39
aa(lp2
I0
aI0
aI0
aI0
aI0
aI0
aI0
aI0
aI0
aI0
aI0
aI0
aI0
aI0
aaI00
a.(lp0
I3
aI2
aI-1
a(lp1
F4441.59
aF4587.96
aF4493.1
aF4551.75
aF4421.7
aF4417.62
aF4535.43
aF4251.87
aF4521.66
aF4458.93
aF4626.21
aF4186.08
aF4557.87
aF4596.12
aa(lp2
I0
aI0
aI0
aI0
aI0
aI0
aI0
aI0
aI0
aI0
aI0
aI0
aI0
aI0
aaI00
a.(lp0
I9
aI2
aI-1
a(lp1
F4528.8
aF4666.5
aF4582.86
aF4561.4400000000005
aF4496.16
aF4425.78
aF4532.37
aF4356.93
aF4611.42
aF4568.07
aF4711.89
aF4503.3
aF4680.78
aF4731.27
aa(lp2
I0
aI0
aI0
aI0
aI0
aI0
aI0
aI0
aI0
aI0
aI0
aI0
aI0
aI0
aaI00
a.(lp0
I14
aI2
aI-1
a(lp1
F4475.76
aF4628.76
aF4525.2300000000005
aF4547.67
aF4455.36
aF4414.05
aF4532.88
aF4299.81
aF4551.75
aF4533.39
aF4670.07
aF4334.49
aF4647.12
aF4663.95
aa(lp2
I0
aI0
aI0
aI0
aI0
aI0
aI0
aI0
aI0
aI0
aI0
aI0
aI0
aI0
aaI00
a.(lp0
I19
aI2
aI-1
a(lp1
F4433.9400000000005
aF4570.11
aF4477.8
aF4530.33
aF4390.59
aF4394.67
aF4528.29
aF4238.1
aF4486.9800000000005
aF4469.64
aF4623.66
aF4178.9400000000005
aF4582.86
aF4621.62
aa(lp2
I0
aI0
aI0
aI0
aI0
aI0
aI0
aI0
aI0
aI0
aI0
aI0
aI0
aI0
aaI00
a.(lp0
I24
aI2
aI-1
a(lp1
F4365.6
aF4553.79
aF4426.8
aF4527.27
aF4354.38
aF4386.51
aF4529.31
aF4187.61
aF4437.51
aF4424.76
aF4586.9400000000005
aF4074.9
aF4531.35
aF4565.52
aa(lp2
I0
aI0
aI0
aI0
aI0
aI0
aI0
aI0
aI0
aI0
aI0
aI0
aI0
aI0
aaI00
a.(lp0
I65
aI2
aI-1
a(lp1
F4389.06
aF4572.15
aF4437.0
aF4486.9800000000005
aF4374.27
aF4399.26
aF4532.88
aF4208.01
aF4456.89
aF4443.12
aF4593.57
aF4086.63
aF4526.76
aF4626.21
aa(lp2
I0
aI0
aI0
aI0
aI0
aI0
aI0
aI0
aI0
aI0
aI0
aI0
aI0
aI0
aaI00
a.(lp0
I70
aI2
aI-1
a(lp1
F4343.67
aF4526.25
aF4414.56
aF4447.71
aF4331.43
aF4391.61
aF4528.29
aF4157.52
aF4406.91
aF4395.6900000000005
aF4563.4800000000005
aF4228.92
aF4479.33
aF4574.7
aa(lp2
I0
aI0
aI0
aI0
aI0
aI0
aI0
aI0
aI0
aI0
aI0
aI0
aI0
aI0
aaI00
a.(lp0
I75
aI2
aI-1
a(lp1
F4319.1900000000005
aF4530.84
aF4395.6900000000005
aF4452.81
aF4330.41
aF4396.71
aF4528.29
aF4144.77
aF4399.77
aF4395.6900000000005
aF4537.9800000000005
aF4173.84
aF4472.1900000000005
aF4555.32
aa(lp2
I0
aI0
aI0
aI0
aI0
aI0
aI0
aI0
aI0
aI0
aI0
aI0
aI0
aI0
aaI00
a.(lp0
I80
aI2
aI-1
a(lp1
F4353.87
aF4552.77
aF4422.72
aF4451.79
aF4333.47
aF4411.5
aF4530.84
aF4165.17
aF4431.9
aF4391.61
aF4549.2
aF4123.35
aF4483.41
aF4557.36
aa(lp2
I0
aI0
aI0
aI0
aI0
aI0
aI0
aI0
aI0
aI0
aI0
aI0
aI0
aI0
aaI00
a.(lp0
I85
aI2
aI-1
a(lp1
F4378.86
aF4551.24
aF4439.55
aF4453.83
aF4358.97
aF4421.7
aF4533.39
aF4190.16
aF4458.42
aF4420.17
aF4570.62
aF4173.33
aF4515.03
aF4563.4800000000005
aa(lp2
I0
aI0
aI0
aI0
aI0
aI0
aI0
aI0
aI0
aI0
aI0
aI0
aI0
aI0
aaI00
a.(lp0
I90
aI2
aI-1
a(lp1
F4420.17
aF4629.78
aF4484.9400000000005
aF4471.17
aF4421.7
aF4438.02
aF4532.37
aF4260.54
aF4527.27
aF4478.31
aF4613.97
aF4211.58
aF4598.67
aF4625.7
aa(lp2
I0
aI0
aI0
aI0
aI0
aI0
aI0
aI0
aI0
aI0
aI0
aI0
aI0
aI0
aaI00
a.(lp0
I95
aI2
aI-1
a(lp1
F4445.16
aF4637.43
aF4515.54
aF4486.47
aF4455.87
aF4445.67
aF4533.9
aF4286.04
aF4551.24
aF4507.38
aF4631.82
aF4224.84
aF4595.1
aF4664.97
aa(lp2
I0
aI0
aI0
aI0
aI0
aI0
aI0
aI0
aI0
aI0
aI0
aI0
aI0
aI0
aaI00
a.(lp0
I100
aI2
aI-1
a(lp1
F4466.58
aF4658.85
aF4540.53
aF4485.96
aF4479.33
aF4449.24
aF4535.43
aF4303.89
aF4561.95
aF4506.36
aF4642.02
aF4250.34
aF4603.26
aF4686.9
aa(lp2
I0
aI0
aI0
aI0
aI0
aI0
aI0
aI0
aI0
aI0
aI0
aI0
aI0
aI0
aaI00
a.(lp0
I14
aI2
aI-1
a(lp1
F4371.72
aF4568.58
aF4445.67
aF4440.06
aF4366.62
aF4421.1900000000005
aF4532.37
aF4196.79
aF4441.59
aF4457.91
aF4562.97
aF4168.2300000000005
aF4548.18
aF4591.53
aa(lp2
I0
aI0
aI0
aI0
aI0
aI0
aI0
aI0
aI0
aI0
aI0
aI0
aI0
aI0
aaI00
a.(lp0
I19
aI2
aI-1
a(lp1
F4307.97
aF4544.1
aF4388.55
aF4444.65
aF4325.82
aF4414.05
aF4529.82
aF4139.16
aF4391.61
aF4374.27
aF4517.07
aF3928.53
aF4475.76
aF4506.87
aa(lp2
I0
aI0
aI0
aI0
aI0
aI0
aI0
aI0
aI0
aI0
aI0
aI0
aI0
aI0
aaI00
a.(lp0
I24
aI2
aI-1
a(lp1
F4312.56
aF4525.2300000000005
aF4396.71
aF4448.7300000000005
aF4313.07
aF4415.58
aF4529.82
aF4136.61
aF4398.75
aF4387.53
aF4514.01
aF3965.25
aF4472.7
aF4519.62
aa(lp2
I0
aI0
aI0
aI0
aI0
aI0
aI0
aI0
aI0
aI0
aI0
aI0
aI0
aI0
aaI00
a.(lp0
I29
aI2
aI-1
a(lp1
F4331.43
aF4542.06
aF4416.09
aF4420.68
aF4332.96
aF4434.45
aF4533.9
aF4152.42
aF4416.6
aF4380.9
aF4512.4800000000005
aF4042.26
aF4475.76
aF4522.68
aa(lp2
I0
aI0
aI0
aI0
aI0
aI0
aI0
aI0
aI0
aI0
aI0
aI0
aI0
aI0
aaI00
a.(lp0
I34
aI2
aI-1
a(lp1
F4356.42
aF4572.66
aF4440.06
aF4451.28
aF4380.39
aF4437.0
aF4531.35
aF4191.18
aF4458.42
aF4424.25
aF4554.81
aF4091.73
aF4534.41
aF4551.75
aa(lp2
I0
aI0
aI0
aI0
aI0
aI0
aI0
aI0
aI0
aI0
aI0
aI0
aI0
aI0
aaI00
a.(lp0
I39
aI2
aI-1
a(lp1
F4420.17
aF4644.57
aF4495.65
aF4481.88
aF4433.43
aF4449.24
aF4535.43
aF4263.6
aF4527.27
aF4475.25
aF4612.4400000000005
aF4346.7300000000005
aF4583.37
aF4634.37
aa(lp2
I0
aI0
aI0
aI0
aI0
aI0
aI0
aI0
aI0
aI0
aI0
aI0
aI0
aI0
aaI00
a.(lp0
I44
aI2
aI-1
a(lp1
F4480.35
aF4689.45
aF4560.42
aF4449.75
aF4489.53
aF4458.42
aF4534.41
aF4322.76
aF4579.29
aF4563.99
aF4663.95
aF4617.03
aF4633.35
aF4707.3
aa(lp2
I0
aI0
aI0
aI0
aI0
aI0
aI0
aI0
aI0
aI0
aI0
aI0
aI0
aI0
aaI00
a.(lp0
I49
aI2
aI-1
a(lp1
F4515.03
aF4703.7300000000005
aF4599.6900000000005
aF4470.66
aF4517.07
aF4464.03
aF4537.9800000000005
aF4361.01
aF4608.36
aF4606.83
aF4708.83
aF4618.05
aF4696.59
aF4725.66
aa(lp2
I0
aI0
aI0
aI0
aI0
aI0
aI0
aI0
aI0
aI0
aI0
aI0
aI0
aI0
aaI00
a.(lp0
I95
aI2
aI-1
a(lp1
F4498.71
aF4701.6900000000005
aF4560.42
aF4413.03
aF4507.38
aF4466.58
aF4534.92
aF4325.31
aF4576.74
aF4592.55
aF4669.56
aF4434.45
aF4670.58
aF4697.1
aa(lp2
I0
aI0
aI0
aI0
aI0
aI0
aI0
aI0
aI0
aI0
aI0
aI0
aI0
aI0
aaI00
a.(lp0
I100
aI2
aI-1
a(lp1
F4452.81
aF4655.79
aF4523.1900000000005
aF4388.04
aF4455.87
aF4454.34
aF4536.45
aF4278.39
aF4527.27
aF4544.61
aF4627.74
aF4287.57
aF4617.54
aF4663.95
aa(lp2
I0
aI0
aI0
aI0
aI0
aI0
aI0
aI0
aI0
aI0
aI0
aI0
aI0
aI0
aaI00
a.(lp0
I106
aI2
aI-1
a(lp1
F4348.26
aF4528.8
aF4416.6
aF4361.01
aF4329.9
aF4423.74
aF4530.33
aF4127.43
aF4388.55
aF4383.96
aF4494.12
aF3907.62
aF4460.97
aF4507.38
aa(lp2
I0
aI0
aI0
aI0
aI0
aI0
aI0
aI0
aI0
aI0
aI0
aI0
aI0
aI0
aaI00
a.(lp0
I112
aI2
aI-1
a(lp1
F4435.47
aF4642.53
aF4495.65
aF4420.68
aF4430.88
aF4466.07
aF4534.92
aF4261.56
aF4533.39
aF4508.4
aF4600.2
aF4284.51
aF4584.9
aF4625.7
aa(lp2
I0
aI0
aI0
aI0
aI0
aI0
aI0
aI0
aI0
aI0
aI0
aI0
aI0
aI0
aaI00
a.(lp0
I116
aI2
aI-1
a(lp1
F4342.65
aF4551.75
aF4418.64
aF4390.59
aF4336.02
aF4438.53
aF4529.82
aF4157.52
aF4425.78
aF4412.01
aF4517.07
aF4012.6800000000003
aF4495.14
aF4521.15
aa(lp2
I0
aI0
aI0
aI0
aI0
aI0
aI0
aI0
aI0
aI0
aI0
aI0
aI0
aI0
aaI00
a.(lp0
I122
aI2
aI-1
a(lp1
F4467.6
aF4672.11
aF4541.04
aF4415.07
aF4472.1900000000005
aF4465.05
aF4535.43
aF4295.7300000000005
aF4560.42
aF4542.57
aF4626.21
aF4286.04
aF4628.76
aF4656.81
aa(lp2
I0
aI0
aI0
aI0
aI0
aI0
aI0
aI0
aI0
aI0
aI0
aI0
aI0
aI0
aaI00
a.(lp0
I127
aI2
aI-1
a(lp1
F4492.08
aF4696.59
aF4550.22
aF4443.12
aF4485.96
aF4460.97
aF4532.37
aF4310.01
aF4561.95
aF4571.13
aF4632.84
aF4492.59
aF4637.9400000000005
aF4673.64
aa(lp2
I0
aI0
aI0
aI0
aI0
aI0
aI0
aI0
aI0
aI0
aI0
aI0
aI0
aI0
aaI00
a.(lp0
I3
aI2
aI-1
a(lp1
F4469.13
aF4670.07
aF4541.04
aF4423.2300000000005
aF4462.5
aF4457.4
aF4531.35
aF4289.1
aF4540.02
aF4548.6900000000005
aF4641.51
aF4552.77
aF4633.86
aF4662.42
aa(lp2
I0
aI0
aI0
aI0
aI0
aI0
aI0
aI0
aI0
aI0
aI0
aI0
aI0
aI0
aaI00
a.(lp0
I50
aI2
aI-1
a(lp1
F4333.9800000000005
aF4525.74
aF4417.11
aF4344.18
aF4307.46
aF4424.25
aF4530.84
aF4133.04
aF4384.47
aF4405.89
aF4504.32
aF4161.6
aF4476.78
aF4502.28
aa(lp2
I0
aI0
aI0
aI0
aI0
aI0
aI0
aI0
aI0
aI0
aI0
aI0
aI0
aI0
aaI00
a.(lp0
I55
aI2
aI-1
a(lp1
F4341.12
aF4541.55
aF4410.4800000000005
aF4363.05
aF4326.84
aF4436.49
aF4529.82
aF4132.53
aF4393.14
aF4395.6900000000005
aF4510.95
aF4118.76
aF4458.42
aF4491.57
aa(lp2
I0
aI0
aI0
aI0
aI0
aI0
aI0
aI0
aI0
aI0
aI0
aI0
aI0
aI0
aaI00
a.(lp0
I60
aI2
aI-1
a(lp1
F4345.2
aF4556.85
aF4417.11
aF4369.68
aF4333.9800000000005
aF4447.2
aF4531.86
aF4151.4
aF4423.2300000000005
aF4424.25
aF4517.58
aF4106.52
aF4486.9800000000005
aF4502.28
aa(lp2
I0
aI0
aI0
aI0
aI0
aI0
aI0
aI0
aI0
aI0
aI0
aI0
aI0
aI0
aaI00
a.(lp0
I65
aI2
aI-1
a(lp1
F4381.92
aF4590.51
aF4466.07
aF4387.53
aF4381.92
aF4463.01
aF4532.37
aF4197.81
aF4472.7
aF4453.83
aF4544.1
aF4154.97
aF4520.13
aF4532.37
aa(lp2
I0
aI0
aI0
aI0
aI0
aI0
aI0
aI0
aI0
aI0
aI0
aI0
aI0
aI0
aaI00
a.(lp0
I70
aI2
aI-1
a(lp1
F4443.63
aF4630.8
aF4529.31
aF4379.37
aF4408.4400000000005
aF4473.72
aF4535.43
aF4259.01
aF4531.86
aF4507.89
aF4607.85
aF4367.64
aF4604.79
aF4603.77
aa(lp2
I0
aI0
aI0
aI0
aI0
aI0
aI0
aI0
aI0
aI0
aI0
aI0
aI0
aI0
aaI00
a.(lp0
I76
aI2
aI-1
a(lp1
F4469.64
aF4680.27
aF4542.57
aF4447.2
aF4476.27
aF4471.17
aF4535.43
aF4295.22
aF4548.6900000000005
aF4536.45
aF4629.78
aF4323.27
aF4629.78
aF4631.82
aa(lp2
I0
aI0
aI0
aI0
aI0
aI0
aI0
aI0
aI0
aI0
aI0
aI0
aI0
aI0
aaI00
a.(lp0
I80
aI2
aI-1
a(lp1
F4485.45
aF4684.35
aF4553.28
aF4420.17
aF4464.54
aF4473.72
aF4534.92
aF4299.81
aF4556.85
aF4540.53
aF4623.66
aF4343.67
aF4617.03
aF4639.47
aa(lp2
I0
aI0
aI0
aI0
aI0
aI0
aI0
aI0
aI0
aI0
aI0
aI0
aI0
aI0
aaI00
a.(lp0
I86
aI2
aI-1
a(lp1
F4379.37
aF4583.37
aF4457.4
aF4374.78
aF4391.1
aF4441.08
aF4532.37
aF4191.18
aF4442.1
aF4458.42
aF4557.36
aF4094.79
aF4529.31
aF4539.51
aa(lp2
I0
aI0
aI0
aI0
aI0
aI0
aI0
aI0
aI0
aI0
aI0
aI0
aI0
aI0
aaI00
a.(lp0
I5
aI2
aI-1
a(lp1
F4422.21
aF4657.83
aF4512.4800000000005
aF4403.34
aF4460.46
aF4480.35
aF4534.92
aF4263.6
aF4530.84
aF4485.45
aF4584.9
aF4361.01
aF4571.13
aF4571.64
aa(lp2
I0
aI0
aI0
aI0
aI0
aI0
aI0
aI0
aI0
aI0
aI0
aI0
aI0
aI0
aaI00
a.(lp0
I9
aI2
aI-1
a(lp1
F4335.51
aF4573.68
aF4428.84
aF4368.15
aF4349.79
aF4452.3
aF4532.88
aF4161.09
aF4427.82
aF4415.07
aF4519.62
aF4034.1
aF4487.49
aF4481.37
aa(lp2
I0
aI0
aI0
aI0
aI0
aI0
aI0
aI0
aI0
aI0
aI0
aI0
aI0
aI0
aaI00
a.(lp0
I14
aI2
aI-1
a(lp1
F4403.34
aF4591.53
aF4489.53
aF4362.03
aF4381.41
aF4468.62
aF4530.33
aF4210.05
aF4478.82
aF4468.62
aF4557.87
aF4173.33
aF4533.39
aF4527.27
aa(lp2
I0
aI0
aI0
aI0
aI0
aI0
aI0
aI0
aI0
aI0
aI0
aI0
aI0
aI0
aaI00
a.(lp0
I19
aI2
aI-1
a(lp1
F4477.8
aF4656.3
aF4543.08
aF4412.52
aF4440.06
aF4475.76
aF4534.92
aF4286.04
aF4552.77
aF4545.63
aF4620.09
aF4485.96
aF4613.97
aF4605.3
aa(lp2
I0
aI0
aI0
aI0
aI0
aI0
aI0
aI0
aI0
aI0
aI0
aI0
aI0
aI0
aaI00
a.(lp0
I25
aI2
aI-1
a(lp1
F4479.84
aF4663.4400000000005
aF4553.28
aF4386.0
aF4446.18
aF4462.5
aF4532.88
aF4278.39
aF4522.68
aF4511.97
aF4621.11
aF4525.2300000000005
aF4583.88
aF4636.41
aa(lp2
I0
aI0
aI0
aI0
aI0
aI0
aI0
aI0
aI0
aI0
aI0
aI0
aI0
aI0
aaI00
a.(lp0
I30
aI2
aI-1
a(lp1
F4433.43
aF4618.56
aF4498.2
aF4380.39
aF4407.42
aF4450.77
aF4529.31
aF4237.59
aF4480.86
aF4506.87
aF4589.49
aF4424.76
aF4583.37
aF4571.13
aa(lp2
I0
aI0
aI0
aI0
aI0
aI0
aI0
aI0
aI0
aI0
aI0
aI0
aI0
aI0
aaI00
a.(lp0
I35
aI2
aI-1
a(lp1
F4366.11
aF4583.37
aF4446.6900000000005
aF4362.03
aF4372.2300000000005
aF4447.71
aF4527.78
aF4173.84
aF4423.74
aF4424.76
aF4542.06
aF4125.39
aF4509.93
aF4506.36
aa(lp2
I0
aI0
aI0
aI0
aI0
aI0
aI0
aI0
aI0
aI0
aI0
aI0
aI0
aI0
aaI00
a.(lp0
I40
aI2
aI-1
a(lp1
F4322.25
aF4554.3
aF4397.7300000000005
aF4364.07
aF4323.27
aF4431.9
aF4528.8
aF4127.9400000000005
aF4383.96
aF4374.27
aF4483.41
aF3919.86
aF4455.87
aF4451.28
aa(lp2
I0
aI0
aI0
aI0
aI0
aI0
aI0
aI0
aI0
aI0
aI0
aI0
aI0
aI0
aaI00
a.(lp0
I90
aI2
aI-1
a(lp1
F4341.63
aF4545.12
aF4409.46
aF4356.93
aF4314.6
aF4446.18
aF4532.88
aF4143.24
aF4396.2
aF4400.28
aF4530.33
aF4200.36
aF4464.54
aF4479.33
aa(lp2
I0
aI0
aI0
aI0
aI0
aI0
aI0
aI0
aI0
aI0
aI0
aI0
aI0
aI0
aaI00
a.(lp0
I94
aI2
aI-1
a(lp1
F4413.54
aF4620.09
aF4492.08
aF4379.88
aF4390.08
aF4461.4800000000005
aF4532.37
aF4227.39
aF4480.35
aF4488.0
aF4584.39
aF4398.24
aF4574.1900000000005
aF4553.79
aa(lp2
I0
aI0
aI0
aI0
aI0
aI0
aI0
aI0
aI0
aI0
aI0
aI0
aI0
aI0
aaI00
a.(lp0
I100
aI2
aI-1
a(lp1
F4336.02
aF4547.67
aF4417.62
aF4343.16
aF4318.17
aF4463.52
aF4535.43
aF4129.9800000000005
aF4395.6900000000005
aF4365.09
aF4493.1
aF4034.61
aF4427.31
aF4453.32
aa(lp2
I0
aI0
aI0
aI0
aI0
aI0
aI0
aI0
aI0
aI0
aI0
aI0
aI0
aI0
aaI00
a.(lp0
I105
aI2
aI-1
a(lp1
F4342.14
aF4568.07
aF4434.96
aF4365.6
aF4329.9
aF4461.4800000000005
aF4534.41
aF4156.5
aF4432.92
aF4386.0
aF4516.56
aF4097.85
aF4473.72
aF4480.86
aa(lp2
I0
aI0
aI0
aI0
aI0
aI0
aI0
aI0
aI0
aI0
aI0
aI0
aI0
aI0
aaI00
a.(lp0
I110
aI2
aI-1
a(lp1
F4405.38
aF4626.21
aF4482.39
aF4393.14
aF4393.14
aF4481.37
aF4535.9400000000005
aF4228.41
aF4501.77
aF4458.93
aF4573.17
aF4269.72
aF4542.06
aF4530.33
aa(lp2
I0
aI0
aI0
aI0
aI0
aI0
aI0
aI0
aI0
aI0
aI0
aI0
aI0
aI0
aaI00
a.(lp0
I116
aI2
aI-1
a(lp1
F4472.7
aF4677.21
aF4561.95
aF4383.45
aF4461.4800000000005
aF4488.51
aF4536.45
aF4310.01
aF4562.46
aF4549.2
aF4647.63
aF4466.58
aF4660.89
aF4622.13
aa(lp2
I0
aI0
aI0
aI0
aI0
aI0
aI0
aI0
aI0
aI0
aI0
aI0
aI0
aI0
aaI00
a.(lp0
I121
aI2
aI0
a(lp1
F4459.4400000000005
aF4624.68
aF4536.45
aF4376.31
aF4401.3
aF4475.76
aF4533.39
aF4263.6
aF4512.99
aF4492.59
aF4606.32
aF4209.54
aF4584.39
aF4597.14
aa(lp2
I0
aI0
aI0
aI0
aI0
aI0
aI0
aI0
aI0
aI0
aI0
aI0
aI0
aI0
aaI00
a.(lp0
I126
aI2
aI-1
a(lp1
F4380.9
aF4613.97
aF4457.4
aF4370.1900000000005
aF4377.84
aF4472.1900000000005
aF4532.88
aF4209.54
aF4459.95
aF4460.46
aF4559.4
aF4099.38
aF4557.87
aF4531.86
aa(lp2
I0
aI0
aI0
aI0
aI0
aI0
aI0
aI0
aI0
aI0
aI0
aI0
aI0
aI0
aaI00
a.(lp0
I49
aI2
aI-1
a(lp1
F4317.15
aF4567.56
aF4401.3
aF4349.79
aF4319.1900000000005
aF4462.5
aF4533.9
aF4137.63
aF4406.91
aF4375.8
aF4501.77
aF4089.1800000000003
aF4470.15
aF4440.57
aa(lp2
I0
aI0
aI0
aI0
aI0
aI0
aI0
aI0
aI0
aI0
aI0
aI0
aI0
aI0
aaI00
a.(lp0
I54
aI2
aI-1
a(lp1
F4367.13
aF4566.54
aF4468.62
aF4342.65
aF4331.43
aF4475.76
aF4536.45
aF4180.47
aF4449.75
aF4411.5
aF4536.45
aF4107.03
aF4501.26
aF4507.38
aa(lp2
I0
aI0
aI0
aI0
aI0
aI0
aI0
aI0
aI0
aI0
aI0
aI0
aI0
aI0
aaI00
a.(lp0
I59
aI2
aI-1
a(lp1
F4430.88
aF4631.31
aF4496.16
aF4391.61
aF4417.62
aF4491.06
aF4536.45
aF4256.46
aF4517.07
aF4490.04
aF4593.57
aF4343.16
aF4567.05
aF4563.99
aa(lp2
I0
aI0
aI0
aI0
aI0
aI0
aI0
aI0
aI0
aI0
aI0
aI0
aI0
aI0
aaI00
a.(lp0
I64
aI2
aI-1
a(lp1
F4459.95
aF4686.9
aF4530.33
aF4406.91
aF4450.26
aF4498.2
aF4540.53
aF4302.36
aF4563.99
aF4550.7300000000005
aF4631.31
aF4601.7300000000005
aF4629.27
aF4599.6900000000005
aa(lp2
I0
aI0
aI0
aI0
aI0
aI0
aI0
aI0
aI0
aI0
aI0
aI0
aI0
aI0
aaI00
a.(lp0
I70
aI2
aI-1
a(lp1
F4427.82
aF4625.7
aF4504.32
aF4372.2300000000005
aF4421.7
aF4471.68
aF4534.41
aF4248.3
aF4490.04
aF4499.7300000000005
aF4606.83
aF4469.64
aF4563.99
aF4591.53
aa(lp2
I0
aI0
aI0
aI0
aI0
aI0
aI0
aI0
aI0
aI0
aI0
aI0
aI0
aI0
aaI00
a.(lp0
I74
aI2
aI-1
a(lp1
F4450.26
aF4668.03
aF4531.86
aF4389.57
aF4462.5
aF4487.49
aF4536.96
aF4299.3
aF4542.06
aF4538.49
aF4630.8
aF4349.79
aF4616.01
aF4627.2300000000005
aa(lp2
I0
aI0
aI0
aI0
aI0
aI0
aI0
aI0
aI0
aI0
aI0
aI0
aI0
aI0
aaI00
a.(lp0
I80
aI2
aI0
a(lp1
F4316.13
aF4525.2300000000005
aF4391.61
aF4338.06
aF4298.28
aF4452.81
aF4530.84
aF4123.35
aF4378.35
aF4387.02
aF4509.42
aF3955.56
aF4441.59
aF4453.83
aa(lp2
I0
aI0
aI0
aI0
aI0
aI0
aI0
aI0
aI0
aI0
aI0
aI0
aI0
aI0
aaI00
a.(lp0
I85
aI2
aI-1
a(lp1
F4317.15
aF4507.38
aF4386.0
aF4328.37
aF4288.08
aF4461.99
aF4533.39
aF4120.29
aF4380.9
aF4365.09
aF4505.34
aF3889.26
aF4471.68
aF4459.4400000000005
aa(lp2
I0
aI0
aI0
aI0
aI0
aI0
aI0
aI0
aI0
aI0
aI0
aI0
aI0
aI0
aaI00
a.(lp0
I9
aI2
aI-1
a(lp1
F4464.54
aF4646.61
aF4518.6
aF4403.34
aF4412.01
aF4493.61
aF4536.45
aF4296.24
aF4544.1
aF4526.25
aF4638.45
aF4343.16
aF4617.54
aF4655.28
aa(lp2
I0
aI0
aI0
aI0
aI0
aI0
aI0
aI0
aI0
aI0
aI0
aI0
aI0
aI0
aaI00
a.(lp0
I14
aI2
aI-1
a(lp1
F4395.18
aF4624.68
aF4461.99
aF4364.07
aF4387.02
aF4478.31
aF4535.43
aF4242.18
aF4485.45
aF4508.4
aF4603.26
aF4225.35
aF4598.67
aF4571.13
aa(lp2
I0
aI0
aI0
aI0
aI0
aI0
aI0
aI0
aI0
aI0
aI0
aI0
aI0
aI0
aaI00
a.(lp0
I19
aI2
aI-1
a(lp1
F4375.29
aF4572.15
aF4435.9800000000005
aF4348.26
aF4343.16
aF4476.27
aF4534.92
aF4189.14
aF4434.45
aF4438.02
aF4562.46
aF4084.59
aF4524.72
aF4548.18
aa(lp2
I0
aI0
aI0
aI0
aI0
aI0
aI0
aI0
aI0
aI0
aI0
aI0
aI0
aI0
aaI00
a.(lp0
I24
aI2
aI-1
a(lp1
F4331.9400000000005
aF4533.39
aF4395.6900000000005
aF4332.45
aF4295.22
aF4464.03
aF4534.92
aF4138.14
aF4390.59
aF4397.7300000000005
aF4516.56
aF4210.05
aF4464.03
aF4501.77
aa(lp2
I0
aI0
aI0
aI0
aI0
aI0
aI0
aI0
aI0
aI0
aI0
aI0
aI0
aI0
aaI00
a.(lp0
I30
aI2
aI-1
a(lp1
F4329.39
aF4564.5
aF4393.65
aF4363.05
aF4333.47
aF4484.43
aF4534.92
aF4163.13
aF4434.96
aF4403.85
aF4526.76
aF4025.4300000000003
aF4479.33
aF4492.08
aa(lp2
I0
aI0
aI0
aI0
aI0
aI0
aI0
aI0
aI0
aI0
aI0
aI0
aI0
aI0
aaI00
a.(lp0
I35
aI2
aI-1
a(lp1
F4392.12
aF4613.97
aF4454.34
aF4367.64
aF4359.4800000000005
aF4499.22
aF4537.9800000000005
aF4222.8
aF4489.02
aF4469.13
aF4564.5
aF4241.67
aF4546.65
aF4569.09
aa(lp2
I0
aI0
aI0
aI0
aI0
aI0
aI0
aI0
aI0
aI0
aI0
aI0
aI0
aI0
aaI00
a.(lp0
I39
aI2
aI-1
a(lp1
F4323.78
aF4548.18
aF4388.04
aF4347.24
aF4305.42
aF4481.37
aF4535.43
aF4150.38
aF4424.25
aF4417.11
aF4518.09
aF4099.89
aF4492.59
aF4485.96
aa(lp2
I0
aI0
aI0
aI0
aI0
aI0
aI0
aI0
aI0
aI0
aI0
aI0
aI0
aI0
aaI00
a.(lp0
I45
aI2
aI-1
a(lp1
F4477.29
aF4692.51
aF4542.06
aF4399.77
aF4458.93
aF4516.05
aF4538.49
aF4328.37
aF4584.9
aF4568.07
aF4666.5
aF4585.92
aF4638.96
aF4673.13
aa(lp2
I0
aI0
aI0
aI0
aI0
aI0
aI0
aI0
aI0
aI0
aI0
aI0
aI0
aI0
aaI00
a.(lp0
I99
aI2
aI-1
a(lp1
F4393.14
aF4593.57
aF4475.76
aF4356.42
aF4363.56
aF4502.79
aF4537.47
aF4225.86
aF4489.02
aF4456.38
aF4564.5
aF4230.96
aF4553.79
aF4557.36
aa(lp2
I0
aI0
aI0
aI0
aI0
aI0
aI0
aI0
aI0
aI0
aI0
aI0
aI0
aI0
aaI00
a.(lp0
I104
aI2
aI-1
a(lp1
F4448.7300000000005
aF4658.85
aF4523.7
aF4370.7
aF4414.56
aF4519.11
aF4539.51
aF4280.9400000000005
aF4542.06
aF4509.93
aF4613.46
aF4489.53
aF4583.37
aF4620.6
aa(lp2
I0
aI0
aI0
aI0
aI0
aI0
aI0
aI0
aI0
aI0
aI0
aI0
aI0
aI0
aaI00
a.(lp0
I109
aI2
aI-1
a(lp1
F4471.17
aF4667.52
aF4575.21
aF4381.92
aF4449.24
aF4521.15
aF4543.59
aF4318.68
aF4570.11
aF4537.47
aF4651.2
aF4587.45
aF4639.9800000000005
aF4660.89
aa(lp2
I0
aI0
aI0
aI0
aI0
aI0
aI0
aI0
aI0
aI0
aI0
aI0
aI0
aI0
aaI00
a.(lp0
I114
aI2
aI-1
a(lp1
F4458.93
aF4661.4
aF4557.36
aF4358.46
aF4433.43
aF4516.05
aF4539.51
aF4307.46
aF4552.77
aF4546.65
aF4646.61
aF4469.64
aF4651.71
aF4653.75
aa(lp2
I0
aI0
aI0
aI0
aI0
aI0
aI0
aI0
aI0
aI0
aI0
aI0
aI0
aI0
aaI00
a.(lp0
I120
aI2
aI-1
a(lp1
F4316.64
aF4521.15
aF4407.42
aF4324.8
aF4293.18
aF4477.29
aF4532.37
aF4135.59
aF4383.45
aF4386.0
aF4505.85
aF4012.6800000000003
aF4471.17
aF4490.55
aa(lp2
I0
aI0
aI0
aI0
aI0
aI0
aI0
aI0
aI0
aI0
aI0
aI0
aI0
aI0
aaI00
a.(lp0
I125
aI2
aI0
a(lp1
F4282.47
aF4517.58
aF4377.33
aF4329.9
aF4279.92
aF4479.33
aF4536.45
aF4115.1900000000005
aF4370.7
aF4368.15
aF4491.57
aF3865.29
aF4439.55
aF4449.24
aa(lp2
I0
aI0
aI0
aI0
aI0
aI0
aI0
aI0
aI0
aI0
aI0
aI0
aI0
aI0
aaI00
a.(lp0
I1
aI2
aI-1
a(lp1
F4303.89
aF4517.58
aF4395.18
aF4313.58
aF4286.04
aF4486.9800000000005
aF4533.9
aF4121.31
aF4387.02
aF4351.83
aF4490.04
aF4064.7000000000003
aF4456.38
aF4467.09
aa(lp2
I0
aI0
aI0
aI0
aI0
aI0
aI0
aI0
aI0
aI0
aI0
aI0
aI0
aI0
aaI00
a.(lp0
I6
aI2
aI-1
a(lp1
F4310.52
aF4540.02
aF4410.99
aF4323.27
aF4291.14
aF4497.6900000000005
aF4535.9400000000005
aF4143.24
aF4415.07
aF4395.6900000000005
aF4515.54
aF4029.0
aF4481.88
aF4478.31
aa(lp2
I0
aI0
aI0
aI0
aI0
aI0
aI0
aI0
aI0
aI0
aI0
aI0
aI0
aI0
aaI00
a.(lp0
I63
aI2
aI-1
a(lp1
F4439.55
aF4651.71
aF4527.78
aF4369.68
aF4418.64
aF4515.03
aF4539.0
aF4279.92
aF4523.1900000000005
aF4516.56
aF4613.97
aF4461.4800000000005
aF4621.62
aF4613.97
aa(lp2
I0
aI0
aI0
aI0
aI0
aI0
aI0
aI0
aI0
aI0
aI0
aI0
aI0
aI0
aaI00
a.(lp0
I68
aI2
aI-1
a(lp1
F4412.52
aF4605.3
aF4499.7300000000005
aF4322.76
aF4377.84
aF4501.77
aF4534.92
aF4234.53
aF4475.25
aF4471.68
aF4605.81
aF4439.04
aF4566.03
aF4593.06
aa(lp2
I0
aI0
aI0
aI0
aI0
aI0
aI0
aI0
aI0
aI0
aI0
aI0
aI0
aI0
aaI00
a.(lp0
I72
aI2
aI-1
a(lp1
F4456.89
aF4654.26
aF4526.25
aF4354.38
aF4422.72
aF4521.66
aF4540.02
aF4281.96
aF4535.9400000000005
aF4516.56
aF4632.33
aF4339.59
aF4620.09
aF4617.54
aa(lp2
I0
aI0
aI0
aI0
aI0
aI0
aI0
aI0
aI0
aI0
aI0
aI0
aI0
aI0
aaI00
a.(lp0
I79
aI2
aI-1
a(lp1
F4318.68
aF4514.52
aF4391.1
aF4313.07
aF4281.45
aF4496.67
aF4538.49
aF4123.35
aF4394.16
aF4355.4
aF4496.16
aF4007.07
aF4464.03
aF4438.53
aa(lp2
I0
aI0
aI0
aI0
aI0
aI0
aI0
aI0
aI0
aI0
aI0
aI0
aI0
aI0
aaI00
a.(lp0
I83
aI2
aI-1
a(lp1
F4299.3
aF4524.21
aF4378.86
aF4307.46
aF4262.07
aF4484.9400000000005
aF4534.92
aF4113.66
aF4370.7
aF4356.93
aF4492.59
aF3862.23
aF4461.4800000000005
aF4439.55
aa(lp2
I0
aI0
aI0
aI0
aI0
aI0
aI0
aI0
aI0
aI0
aI0
aI0
aI0
aI0
aaI00
a.(lp0
I88
aI2
aI-1
a(lp1
F4314.09
aF4521.15
aF4394.67
aF4315.62
aF4273.8
aF4500.75
aF4535.43
aF4125.39
aF4390.59
aF4359.99
aF4490.55
aF4179.45
aF4456.89
aF4448.22
aa(lp2
I0
aI0
aI0
aI0
aI0
aI0
aI0
aI0
aI0
aI0
aI0
aI0
aI0
aI0
aaI00
a.(lp0
I94
aI2
aI-1
a(lp1
F4444.65
aF4642.53
aF4522.17
aF4346.22
aF4409.97
aF4532.88
aF4541.55
aF4271.76
aF4528.8
aF4483.92
aF4610.4
aF4177.41
aF4595.1
aF4590.0
aa(lp2
I0
aI0
aI0
aI0
aI0
aI0
aI0
aI0
aI0
aI0
aI0
aI0
aI0
aI0
aaI00
a.(lp0
I98
aI2
aI-1
a(lp1
F4393.14
aF4588.47
aF4476.27
aF4329.39
aF4350.3
aF4517.07
aF4536.96
aF4211.07
aF4480.86
aF4445.16
aF4559.91
aF4204.95
aF4552.77
aF4527.78
aa(lp2
I0
aI0
aI0
aI0
aI0
aI0
aI0
aI0
aI0
aI0
aI0
aI0
aI0
aI0
aaI00
a.(lp0
I27
aI2
aI-1
a(lp1
F4298.28
aF4510.4400000000005
aF4370.7
aF4298.28
aF4284.0
aF4492.08
aF4535.43
aF4110.6
aF4366.11
aF4356.42
aF4491.06
aF4117.74
aF4454.34
aF4445.67
aa(lp2
I0
aI0
aI0
aI0
aI0
aI0
aI0
aI0
aI0
aI0
aI0
aI0
aI0
aI0
aaI00
a.(lp0
I32
aI2
aI-1
a(lp1
F4292.16
aF4505.85
aF4366.62
aF4318.68
aF4270.2300000000005
aF4491.06
aF4530.33
aF4110.6
aF4376.82
aF4370.7
aF4476.27
aF4026.4500000000003
aF4471.17
aF4440.57
aa(lp2
I0
aI0
aI0
aI0
aI0
aI0
aI0
aI0
aI0
aI0
aI0
aI0
aI0
aI0
aaI00
a.(lp0
I38
aI2
aI-1
a(lp1
F4440.06
aF4646.1
aF4507.38
aF4364.07
aF4412.52
aF4534.92
aF4542.06
aF4271.76
aF4536.96
aF4480.35
aF4603.26
aF4465.05
aF4615.5
aF4600.2
aa(lp2
I0
aI0
aI0
aI0
aI0
aI0
aI0
aI0
aI0
aI0
aI0
aI0
aI0
aI0
aaI00
a.(lp0
I43
aI2
aI-1
a(lp1
F4469.64
aF4677.21
aF4541.55
aF4368.66
aF4449.24
aF4539.51
aF4541.04
aF4316.13
aF4570.11
aF4548.18
aF4652.22
aF4603.77
aF4657.83
aF4633.86
aa(lp2
I0
aI0
aI0
aI0
aI0
aI0
aI0
aI0
aI0
aI0
aI0
aI0
aI0
aI0
aaI00
a.(lp0
I48
aI2
aI-1
a(lp1
F4457.91
aF4665.4800000000005
aF4528.29
aF4390.08
aF4445.67
aF4534.92
aF4538.49
aF4298.28
aF4550.7300000000005
aF4511.46
aF4645.59
aF4475.25
aF4637.9400000000005
aF4633.35
aa(lp2
I0
aI0
aI0
aI0
aI0
aI0
aI0
aI0
aI0
aI0
aI0
aI0
aI0
aI0
aaI00
a.(lp0
I53
aI2
aI-1
a(lp1
F4414.05
aF4613.97
aF4469.64
aF4379.37
aF4398.75
aF4517.58
aF4536.96
aF4247.28
aF4499.7300000000005
aF4499.7300000000005
aF4609.89
aF4229.43
aF4598.16
aF4574.7
aa(lp2
I0
aI0
aI0
aI0
aI0
aI0
aI0
aI0
aI0
aI0
aI0
aI0
aI0
aI0
aaI00
a.(lp0
I58
aI2
aI-1
a(lp1
F4360.5
aF4574.1900000000005
aF4439.04
aF4348.77
aF4335.0
aF4505.85
aF4537.9800000000005
aF4200.36
aF4449.24
aF4452.81
aF4590.0
aF4114.17
aF4563.4800000000005
aF4543.08
aa(lp2
I0
aI0
aI0
aI0
aI0
aI0
aI0
aI0
aI0
aI0
aI0
aI0
aI0
aI0
aaI00
a.(lp0
I63
aI2
aI-1
a(lp1
F4324.8
aF4546.65
aF4390.08
aF4339.08
aF4323.27
aF4502.28
aF4535.9400000000005
aF4154.46
aF4405.89
aF4410.99
aF4537.9800000000005
aF4131.0
aF4509.93
aF4486.47
aa(lp2
I0
aI0
aI0
aI0
aI0
aI0
aI0
aI0
aI0
aI0
aI0
aI0
aI0
aI0
aaI00
a.(lp0
I123
aI2
aI-1
a(lp1
F4322.25
aF4485.96
aF4361.52
aF4323.27
aF4255.95
aF4497.18
aF4532.37
aF4101.93
aF4367.13
aF4340.61
aF4473.72
aF3878.55
aF4463.52
aF4439.04
aa(lp2
I0
aI0
aI0
aI0
aI0
aI0
aI0
aI0
aI0
aI0
aI0
aI0
aI0
aI0
aaI00
a.(lp0
I0
aI2
aI-1
a(lp1
F4413.03
aF4590.51
aF4460.46
aF4370.7
aF4367.13
aF4532.88
aF4538.49
aF4233.0
aF4500.75
aF4463.01
aF4580.82
aF4312.05
aF4592.04
aF4531.86
aa(lp2
I0
aI0
aI0
aI0
aI0
aI0
aI0
aI0
aI0
aI0
aI0
aI0
aI0
aI0
aaI00
a.(lp0
I5
aI2
aI-1
a(lp1
F4442.61
aF4615.5
aF4478.31
aF4353.87
aF4401.3
aF4537.9800000000005
aF4536.45
aF4264.11
aF4529.31
aF4509.42
aF4608.36
aF4288.59
aF4613.46
aF4568.58
aa(lp2
I0
aI0
aI0
aI0
aI0
aI0
aI0
aI0
aI0
aI0
aI0
aI0
aI0
aI0
aaI00
a.(lp0
I9
aI2
aI-1
a(lp1
F4389.57
aF4567.05
aF4415.07
aF4345.71
aF4336.02
aF4521.66
aF4534.41
aF4184.04
aF4455.87
aF4407.93
aF4535.43
aF4117.2300000000005
aF4532.88
aF4494.63
aa(lp2
I0
aI0
aI0
aI0
aI0
aI0
aI0
aI0
aI0
aI0
aI0
aI0
aI0
aI0
aaI00
a.(lp0
I15
aI2
aI-1
a(lp1
F4483.92
aF4645.59
aF4510.95
aF4380.9
aF4431.9
aF4535.9400000000005
aF4539.0
aF4296.75
aF4546.14
aF4531.35
aF4628.76
aF4484.9400000000005
aF4653.24
aF4619.07
aa(lp2
I0
aI0
aI0
aI0
aI0
aI0
aI0
aI0
aI0
aI0
aI0
aI0
aI0
aI0
aaI00
a.(lp0
I19
aI2
aI-1
a(lp1
F4478.82
aF4668.03
aF4508.4
aF4379.37
aF4443.63
aF4541.04
aF4537.9800000000005
aF4303.38
aF4557.87
aF4528.8
aF4625.1900000000005
aF4588.47
aF4643.55
aF4610.4
aa(lp2
I0
aI0
aI0
aI0
aI0
aI0
aI0
aI0
aI0
aI0
aI0
aI0
aI0
aI0
aaI00
a.(lp0
I25
aI2
aI-1
a(lp1
F4430.88
aF4593.06
aF4461.99
aF4326.84
aF4366.62
aF4506.87
aF4534.41
aF4224.33
aF4469.64
aF4469.13
aF4592.04
aF4387.53
aF4586.43
aF4561.4400000000005
aa(lp2
I0
aI0
aI0
aI0
aI0
aI0
aI0
aI0
aI0
aI0
aI0
aI0
aI0
aI0
aaI00
a.(lp0
I30
aI2
aI-1
a(lp1
F4377.84
aF4557.87
aF4403.34
aF4326.84
aF4331.9400000000005
aF4505.85
aF4534.41
aF4162.11
aF4413.54
aF4401.3
aF4529.31
aF4147.32
aF4530.33
aF4482.9
aa(lp2
I0
aI0
aI0
aI0
aI0
aI0
aI0
aI0
aI0
aI0
aI0
aI0
aI0
aI0
aaI00
a.