(lp0
I126
aI2
aI-1
a(lp1
F3640.89
aF3747.9900000000002
aF3273.18
aF7507.71
aF3464.94
aF4318.68
aF4499.7300000000005
aF4186.59
aF4450.77
aF5466.18
aF5357.55
aF4172.31
aF3661.29
aF3784.71
aa(lp2
I0
aI0
aI0
aI0
aI0
aI0
aI0
aI0
aI0
aI0
aI0
aI0
aI0
aI0
aaI00
a.(lp0
I127
aI2
aI-1
a(lp1
F3640.89
aF3747.9900000000002
aF3273.18
aF7507.71
aF3464.94
aF4318.68
aF4499.7300000000005
aF4186.59
aF4450.77
aF5466.18
aF5357.55
aF4172.31
aF3661.29
aF3784.71
aa(lp2
I0
aI0
aI0
aI0
aI0
aI0
aI0
aI0
aI0
aI0
aI0
aI0
aI0
aI0
aaI00
a.(lp0
I128
aI2
aI0
a(lp1
F3640.89
aF3747.9900000000002
aF3273.18
aF7507.71
aF3464.94
aF4318.68
aF4499.7300000000005
aF4186.59
aF4450.77
aF5466.18
aF5357.55
aF4172.31
aF3661.29
aF3784.71
aa(lp2
I0
aI0
aI0
aI0
aI0
aI0
aI0
aI0
aI0
aI0
aI0
aI0
aI0
aI0
aaI00
a.(lp0
I0
aI2
aI0
a(lp1
F3640.89
aF3747.9900000000002
aF3273.18
aF7507.71
aF3464.94
aF4318.68
aF4499.7300000000005
aF4186.59
aF4450.77
aF5466.18
aF5357.55
aF4172.31
aF3661.29
aF3784.71
aa(lp2
I0
aI0
aI0
aI0
aI0
aI0
aI0
aI0
aI0
aI0
aI0
aI0
aI0
aI0
aaI00
a.(lp0
I1
aI2
aI0
a(lp1
F3640.89
aF3747.9900000000002
aF3273.18
aF7507.71
aF3464.94
aF4318.68
aF4499.7300000000005
aF4186.59
aF4450.77
aF5466.18
aF5357.55
aF4172.31
aF3661.29
aF3784.71
aa(lp2
I0
aI0
aI0
aI0
aI0
aI0
aI0
aI0
aI0
aI0
aI0
aI0
aI0
aI0
aaI00
a.(lp0
I2
aI2
aI0
a(lp1
F3640.89
aF3747.9900000000002
aF3273.18
aF7507.71
aF3464.94
aF4318.68
aF4499.7300000000005
aF4186.59
aF4450.77
aF5466.18
aF5357.55
aF4172.31
aF3661.29
aF3784.71
aa(lp2
I0
aI0
aI0
aI0
aI0
aI0
aI0
aI0
aI0
aI0
aI0
aI0
aI0
aI0
aaI00
a.(lp0
I3
aI2
aI0
a(lp1
F3640.89
aF3747.9900000000002
aF3273.18
aF7507.71
aF3464.94
aF4318.68
aF4499.7300000000005
aF4186.59
aF4450.77
aF5466.18
aF5357.55
aF4172.31
aF3661.29
aF3784.71
aa(lp2
I0
aI0
aI0
aI0
aI0
aI0
aI0
aI0
aI0
aI0
aI0
aI0
aI0
aI0
aaI00
a.(lp0
I4
aI2
aI0
a(lp1
F3640.89
aF3747.9900000000002
aF3273.18
aF7507.71
aF3464.94
aF4318.68
aF4499.7300000000005
aF4186.59
aF4450.77
aF5466.18
aF5357.55
aF4172.31
aF3661.29
aF3784.71
aa(lp2
I0
aI0
aI0
aI0
aI0
aI0
aI0
aI0
aI0
aI0
aI0
aI0
aI0
aI0
aaI00
a.(lp0
I5
aI2
aI0
a(lp1
F3758.7000000000003
aF3815.31
aF3386.4
aF7537.29
aF3539.4
aF4335.51
aF4505.34
aF4288.59
aF4538.49
aF5529.42
aF5428.95
aF4329.39
aF3768.9
aF3894.36
aa(lp2
I0
aI0
aI0
aI0
aI0
aI0
aI0
aI0
aI0
aI0
aI0
aI0
aI0
aI0
aaI00
a.(lp0
I6
aI2
aI0
a(lp1
F3758.7000000000003
aF3815.31
aF3386.4
aF7537.29
aF3539.4
aF4335.51
aF4505.34
aF4288.59
aF4538.49
aF5529.42
aF5428.95
aF4329.39
aF3768.9
aF3894.36
aa(lp2
I0
aI0
aI0
aI0
aI0
aI0
aI0
aI0
aI0
aI0
aI0
aI0
aI0
aI0
aaI00
a.(lp0
I7
aI2
aI0
a(lp1
F3758.7000000000003
aF3815.31
aF3386.4
aF7537.29
aF3539.4
aF4335.51
aF4505.34
aF4288.59
aF4538.49
aF5529.42
aF5428.95
aF4329.39
aF3768.9
aF3894.36
aa(lp2
I0
aI0
aI0
aI0
aI0
aI0
aI0
aI0
aI0
aI0
aI0
aI0
aI0
aI0
aaI00
a.(lp0
I8
aI2
aI1
a(lp1
F3758.7000000000003
aF3815.31
aF3386.4
aF7537.29
aF3539.4
aF4335.51
aF4505.34
aF4288.59
aF4538.49
aF5529.42
aF5428.95
aF4329.39
aF3768.9
aF3894.36
aa(lp2
I0
aI0
aI0
aI0
aI0
aI0
aI0
aI0
aI0
aI0
aI0
aI0
aI0
aI0
aaI00
a.(lp0
I9
aI2
aI2
a(lp1
F3758.7000000000003
aF3815.31
aF3386.4
aF7537.29
aF3539.4
aF4335.51
aF4505.34
aF4288.59
aF4538.49
aF5529.42
aF5428.95
aF4329.39
aF3768.9
aF3894.36
aa(lp2
I0
aI0
aI0
aI0
aI0
aI0
aI0
aI0
aI0
aI0
aI0
aI0
aI0
aI0
aaI00
a.(lp0
I10
aI2
aI3
a(lp1
F3758.7000000000003
aF3815.31
aF3386.4
aF7537.29
aF3539.4
aF4335.51
aF4505.34
aF4288.59
aF4538.49
aF5529.42
aF5428.95
aF4329.39
aF3768.9
aF3894.36
aa(lp2
I0
aI0
aI0
aI0
aI0
aI0
aI0
aI0
aI0
aI0
aI0
aI0
aI0
aI0
aaI00
a.(lp0
I11
aI2
aI3
a(lp1
F3758.7000000000003
aF3815.31
aF3386.4
aF7537.29
aF3539.4
aF4335.51
aF4505.34
aF4288.59
aF4538.49
aF5529.42
aF5428.95
aF4329.39
aF3768.9
aF3894.36
aa(lp2
I0
aI0
aI0
aI0
aI0
aI0
aI0
aI0
aI0
aI0
aI0
aI0
aI0
aI0
aaI00
a.(lp0
I12
aI2
aI3
a(lp1
F3758.7000000000003
aF3815.31
aF3386.4
aF7537.29
aF3539.4
aF4335.51
aF4505.34
aF4288.59
aF4538.49
aF5529.42
aF5428.95
aF4329.39
aF3768.9
aF3894.36
aa(lp2
I0
aI0
aI0
aI0
aI0
aI0
aI0
aI0
aI0
aI0
aI0
aI0
aI0
aI0
aaI00
a.(lp0
I13
aI2
aI2
a(lp1
F3750.54
aF3785.2200000000003
aF3373.65
aF7502.610000000001
aF3533.28
aF4316.64
aF4499.7300000000005
aF4250.85
aF4490.55
aF5474.34
aF5411.61
aF4265.64
aF3714.33
aF3887.2200000000003
aa(lp2
I0
aI0
aI0
aI0
aI0
aI0
aI0
aI0
aI0
aI0
aI0
aI0
aI0
aI0
aaI00
a.(lp0
I14
aI3
aI1
a(lp1
F3750.54
aF3785.2200000000003
aF3373.65
aF7502.610000000001
aF3533.28
aF4316.64
aF4499.7300000000005
aF4250.85
aF4490.55
aF5474.34
aF5411.61
aF4265.64
aF3714.33
aF3887.2200000000003
aa(lp2
I0
aI0
aI0
aI0
aI0
aI0
aI0
aI0
aI0
aI0
aI0
aI0
aI0
aI0
aaI00
a.(lp0
I15
aI3
aI-1
a(lp1
F3750.54
aF3785.2200000000003
aF3373.65
aF7502.610000000001
aF3533.28
aF4316.64
aF4499.7300000000005
aF4250.85
aF4490.55
aF5474.34
aF5411.61
aF4265.64
aF3714.33
aF3887.2200000000003
aa(lp2
I0
aI0
aI0
aI0
aI0
aI0
aI0
aI0
aI0
aI0
aI0
aI0
aI0
aI0
aaI00
a.(lp0
I16
aI3
aI-2
a(lp1
F3750.54
aF3785.2200000000003
aF3373.65
aF7502.610000000001
aF3533.28
aF4316.64
aF4499.7300000000005
aF4250.85
aF4490.55
aF5474.34
aF5411.61
aF4265.64
aF3714.33
aF3887.2200000000003
aa(lp2
I0
aI0
aI0
aI0
aI0
aI0
aI0
aI0
aI0
aI0
aI0
aI0
aI0
aI0
aaI00
a.(lp0
I17
aI2
aI-2
a(lp1
F3750.54
aF3785.2200000000003
aF3373.65
aF7502.610000000001
aF3533.28
aF4316.64
aF4499.7300000000005
aF4250.85
aF4490.55
aF5474.34
aF5411.61
aF4265.64
aF3714.33
aF3887.2200000000003
aa(lp2
I0
aI0
aI0
aI0
aI0
aI0
aI0
aI0
aI0
aI0
aI0
aI0
aI0
aI0
aaI00
a.(lp0
I18
aI2
aI0
a(lp1
F3750.54
aF3785.2200000000003
aF3373.65
aF7502.610000000001
aF3533.28
aF4316.64
aF4499.7300000000005
aF4250.85
aF4490.55
aF5474.34
aF5411.61
aF4265.64
aF3714.33
aF3887.2200000000003
aa(lp2
I0
aI0
aI0
aI0
aI0
aI0
aI0
aI0
aI0
aI0
aI0
aI0
aI0
aI0
aaI00
a.(lp0
I19
aI2
aI1
a(lp1
F3750.54
aF3785.2200000000003
aF3373.65
aF7502.610000000001
aF3533.28
aF4316.64
aF4499.7300000000005
aF4250.85
aF4490.55
aF5474.34
aF5411.61
aF4265.64
aF3714.33
aF3887.2200000000003
aa(lp2
I0
aI0
aI0
aI0
aI0
aI0
aI0
aI0
aI0
aI0
aI0
aI0
aI0
aI0
aaI00
a.(lp0
I20
aI2
aI2
a(lp1
F3750.54
aF3785.2200000000003
aF3373.65
aF7502.610000000001
aF3533.28
aF4316.64
aF4499.7300000000005
aF4250.85
aF4490.55
aF5474.34
aF5411.61
aF4265.64
aF3714.33
aF3887.2200000000003
aa(lp2
I0
aI0
aI0
aI0
aI0
aI0
aI0
aI0
aI0
aI0
aI0
aI0
aI0
aI0
aaI00
a.(lp0
I21
aI2
aI2
a(lp1
F3646.5
aF3716.37
aF3285.42
aF7479.150000000001
aF3464.43
aF4298.28
aF4495.65
aF4134.57
aF4384.9800000000005
aF5367.75
aF5308.59
aF4078.4700000000003
aF3608.25
aF3783.69
aa(lp2
I0
aI0
aI0
aI0
aI0
aI0
aI0
aI0
aI0
aI0
aI0
aI0
aI0
aI0
aaI00
a.(lp0
I22
aI2
aI1
a(lp1
F3646.5
aF3716.37
aF3285.42
aF7479.150000000001
aF3464.43
aF4298.28
aF4495.65
aF4134.57
aF4384.9800000000005
aF5367.75
aF5308.59
aF4078.4700000000003
aF3608.25
aF3783.69
aa(lp2
I0
aI0
aI0
aI0
aI0
aI0
aI0
aI0
aI0
aI0
aI0
aI0
aI0
aI0
aaI00
a.(lp0
I23
aI2
aI0
a(lp1
F3646.5
aF3716.37
aF3285.42
aF7479.150000000001
aF3464.43
aF4298.28
aF4495.65
aF4134.57
aF4384.9800000000005
aF5367.75
aF5308.59
aF4078.4700000000003
aF3608.25
aF3783.69
aa(lp2
I0
aI0
aI0
aI0
aI0
aI0
aI0
aI0
aI0
aI0
aI0
aI0
aI0
aI0
aaI00
a.(lp0
I24
aI2
aI-1
a(lp1
F3646.5
aF3716.37
aF3285.42
aF7479.150000000001
aF3464.43
aF4298.28
aF4495.65
aF4134.57
aF4384.9800000000005
aF5367.75
aF5308.59
aF4078.4700000000003
aF3608.25
aF3783.69
aa(lp2
I0
aI0
aI0
aI0
aI0
aI0
aI0
aI0
aI0
aI0
aI0
aI0
aI0
aI0
aaI00
a.(lp0
I25
aI2
aI-1
a(lp1
F3646.5
aF3716.37
aF3285.42
aF7479.150000000001
aF3464.43
aF4298.28
aF4495.65
aF4134.57
aF4384.9800000000005
aF5367.75
aF5308.59
aF4078.4700000000003
aF3608.25
aF3783.69
aa(lp2
I0
aI0
aI0
aI0
aI0
aI0
aI0
aI0
aI0
aI0
aI0
aI0
aI0
aI0
aaI00
a.(lp0
I26
aI2
aI-1
a(lp1
F3646.5
aF3716.37
aF3285.42
aF7479.150000000001
aF3464.43
aF4298.28
aF4495.65
aF4134.57
aF4384.9800000000005
aF5367.75
aF5308.59
aF4078.4700000000003
aF3608.25
aF3783.69
aa(lp2
I0
aI0
aI0
aI0
aI0
aI0
aI0
aI0
aI0
aI0
aI0
aI0
aI0
aI0
aaI00
a.(lp0
I27
aI2
aI0
a(lp1
F3646.5
aF3716.37
aF3285.42
aF7479.150000000001
aF3464.43
aF4298.28
aF4495.65
aF4134.57
aF4384.9800000000005
aF5367.75
aF5308.59
aF4078.4700000000003
aF3608.25
aF3783.69
aa(lp2
I0
aI0
aI0
aI0
aI0
aI0
aI0
aI0
aI0
aI0
aI0
aI0
aI0
aI0
aaI00
a.(lp0
I28
aI2
aI0
a(lp1
F3646.5
aF3716.37
aF3285.42
aF7479.150000000001
aF3464.43
aF4298.28
aF4495.65
aF4134.57
aF4384.9800000000005
aF5367.75
aF5308.59
aF4078.4700000000003
aF3608.25
aF3783.69
aa(lp2
I0
aI0
aI0
aI0
aI0
aI0
aI0
aI0
aI0
aI0
aI0
aI0
aI0
aI0
aaI00
a.(lp0
I29
aI2
aI0
a(lp1
F3634.26
aF3748.5
aF3297.15
aF7464.360000000001
aF3459.84
aF4314.09
aF4500.24
aF4140.18
aF4401.81
aF5353.47
aF5281.05
aF4155.4800000000005
aF3656.7000000000003
aF3764.31
aa(lp2
I0
aI0
aI0
aI0
aI0
aI0
aI0
aI0
aI0
aI0
aI0
aI0
aI0
aI0
aaI00
a.(lp0
I30
aI3
aI0
a(lp1
F3634.26
aF3748.5
aF3297.15
aF7464.360000000001
aF3459.84
aF4314.09
aF4500.24
aF4140.18
aF4401.81
aF5353.47
aF5281.05
aF4155.4800000000005
aF3656.7000000000003
aF3764.31
aa(lp2
I0
aI0
aI0
aI0
aI0
aI0
aI0
aI0
aI0
aI0
aI0
aI0
aI0
aI0
aaI00
a.(lp0
I31
aI3
aI0
a(lp1
F3634.26
aF3748.5
aF3297.15
aF7464.360000000001
aF3459.84
aF4314.09
aF4500.24
aF4140.18
aF4401.81
aF5353.47
aF5281.05
aF4155.4800000000005
aF3656.7000000000003
aF3764.31
aa(lp2
I0
aI0
aI0
aI0
aI0
aI0
aI0
aI0
aI0
aI0
aI0
aI0
aI0
aI0
aaI00
a.(lp0
I32
aI2
aI-1
a(lp1
F3634.26
aF3748.5
aF3297.15
aF7464.360000000001
aF3459.84
aF4314.09
aF4500.24
aF4140.18
aF4401.81
aF5353.47
aF5281.05
aF4155.4800000000005
aF3656.7000000000003
aF3764.31
aa(lp2
I0
aI0
aI0
aI0
aI0
aI0
aI0
aI0
aI0
aI0
aI0
aI0
aI0
aI0
aaI00
a.(lp0
I33
aI2
aI-1
a(lp1
F3634.26
aF3748.5
aF3297.15
aF7464.360000000001
aF3459.84
aF4314.09
aF4500.24
aF4140.18
aF4401.81
aF5353.47
aF5281.05
aF4155.4800000000005
aF3656.7000000000003
aF3764.31
aa(lp2
I0
aI0
aI0
aI0
aI0
aI0
aI0
aI0
aI0
aI0
aI0
aI0
aI0
aI0
aaI00
a.(lp0
I34
aI2
aI-1
a(lp1
F3634.26
aF3748.5
aF3297.15
aF7464.360000000001
aF3459.84
aF4314.09
aF4500.24
aF4140.18
aF4401.81
aF5353.47
aF5281.05
aF4155.4800000000005
aF3656.7000000000003
aF3764.31
aa(lp2
I0
aI0
aI0
aI0
aI0
aI0
aI0
aI0
aI0
aI0
aI0
aI0
aI0
aI0
aaI00
a.(lp0
I35
aI2
aI-1
a(lp1
F3634.26
aF3748.5
aF3297.15
aF7464.360000000001
aF3459.84
aF4314.09
aF4500.24
aF4140.18
aF4401.81
aF5353.47
aF5281.05
aF4155.4800000000005
aF3656.7000000000003
aF3764.31
aa(lp2
I0
aI0
aI0
aI0
aI0
aI0
aI0
aI0
aI0
aI0
aI0
aI0
aI0
aI0
aaI00
a.(lp0
I36
aI2
aI-1
a(lp1
F3634.26
aF3748.5
aF3297.15
aF7464.360000000001
aF3459.84
aF4314.09
aF4500.24
aF4140.18
aF4401.81
aF5353.47
aF5281.05
aF4155.4800000000005
aF3656.7000000000003
aF3764.31
aa(lp2
I0
aI0
aI0
aI0
aI0
aI0
aI0
aI0
aI0
aI0
aI0
aI0
aI0
aI0
aaI00
a.(lp0
I37
aI2
aI-1
a(lp1
F3754.62
aF3835.71
aF3412.92
aF7470.99
aF3551.64
aF4337.04
aF4503.81
aF4257.4800000000005
aF4516.56
aF5423.85
aF5394.78
aF4452.3
aF3779.61
aF3893.85
aa(lp2
I0
aI0
aI0
aI0
aI0
aI0
aI0
aI0
aI0
aI0
aI0
aI0
aI0
aI0
aaI00
a.(lp0
I38
aI2
aI-1
a(lp1
F3754.62
aF3835.71
aF3412.92
aF7470.99
aF3551.64
aF4337.04
aF4503.81
aF4257.4800000000005
aF4516.56
aF5423.85
aF5394.78
aF4452.3
aF3779.61
aF3893.85
aa(lp2
I0
aI0
aI0
aI0
aI0
aI0
aI0
aI0
aI0
aI0
aI0
aI0
aI0
aI0
aaI00
a.(lp0
I39
aI2
aI-1
a(lp1
F3754.62
aF3835.71
aF3412.92
aF7470.99
aF3551.64
aF4337.04
aF4503.81
aF4257.4800000000005
aF4516.56
aF5423.85
aF5394.78
aF4452.3
aF3779.61
aF3893.85
aa(lp2
I0
aI0
aI0
aI0
aI0
aI0
aI0
aI0
aI0
aI0
aI0
aI0
aI0
aI0
aaI00
a.(lp0
I40
aI2
aI-1
a(lp1
F3754.62
aF3835.71
aF3412.92
aF7470.99
aF3551.64
aF4337.04
aF4503.81
aF4257.4800000000005
aF4516.56
aF5423.85
aF5394.78
aF4452.3
aF3779.61
aF3893.85
aa(lp2
I0
aI0
aI0
aI0
aI0
aI0
aI0
aI0
aI0
aI0
aI0
aI0
aI0
aI0
aaI00
a.(lp0
I41
aI2
aI-1
a(lp1
F3754.62
aF3835.71
aF3412.92
aF7470.99
aF3551.64
aF4337.04
aF4503.81
aF4257.4800000000005
aF4516.56
aF5423.85
aF5394.78
aF4452.3
aF3779.61
aF3893.85
aa(lp2
I0
aI0
aI0
aI0
aI0
aI0
aI0
aI0
aI0
aI0
aI0
aI0
aI0
aI0
aaI00
a.(lp0
I42
aI2
aI-1
a(lp1
F3754.62
aF3835.71
aF3412.92
aF7470.99
aF3551.64
aF4337.04
aF4503.81
aF4257.4800000000005
aF4516.56
aF5423.85
aF5394.78
aF4452.3
aF3779.61
aF3893.85
aa(lp2
I0
aI0
aI0
aI0
aI0
aI0
aI0
aI0
aI0
aI0
aI0
aI0
aI0
aI0
aaI00
a.(lp0
I43
aI2
aI-1
a(lp1
F3754.62
aF3835.71
aF3412.92
aF7470.99
aF3551.64
aF4337.04
aF4503.81
aF4257.4800000000005
aF4516.56
aF5423.85
aF5394.78
aF4452.3
aF3779.61
aF3893.85
aa(lp2
I0
aI0
aI0
aI0
aI0
aI0
aI0
aI0
aI0
aI0
aI0
aI0
aI0
aI0
aaI00
a.(lp0
I44
aI2
aI-1
a(lp1
F3754.62
aF3835.71
aF3412.92
aF7470.99
aF3551.64
aF4337.04
aF4503.81
aF4257.4800000000005
aF4516.56
aF5423.85
aF5394.78
aF4452.3
aF3779.61
aF3893.85
aa(lp2
I0
aI0
aI0
aI0
aI0
aI0
aI0
aI0
aI0
aI0
aI0
aI0
aI0
aI0
aaI00
a.(lp0
I45
aI2
aI-1
a(lp1
F3802.56
aF3870.9
aF3446.07
aF7489.35
aF3618.96
aF4331.9400000000005
aF4502.79
aF4294.71
aF4540.53
aF5443.2300000000005
aF5447.82
aF4544.61
aF3812.76
aF3959.13
aa(lp2
I0
aI0
aI0
aI0
aI0
aI0
aI0
aI0
aI0
aI0
aI0
aI0
aI0
aI0
aaI00
a.(lp0
I46
aI2
aI-1
a(lp1
F3802.56
aF3870.9
aF3446.07
aF7489.35
aF3618.96
aF4331.9400000000005
aF4502.79
aF4294.71
aF4540.53
aF5443.2300000000005
aF5447.82
aF4544.61
aF3812.76
aF3959.13
aa(lp2
I0
aI0
aI0
aI0
aI0
aI0
aI0
aI0
aI0
aI0
aI0
aI0
aI0
aI0
aaI00
a.(lp0
I47
aI2
aI-1
a(lp1
F3802.56
aF3870.9
aF3446.07
aF7489.35
aF3618.96
aF4331.9400000000005
aF4502.79
aF4294.71
aF4540.53
aF5443.2300000000005
aF5447.82
aF4544.61
aF3812.76
aF3959.13
aa(lp2
I0
aI0
aI0
aI0
aI0
aI0
aI0
aI0
aI0
aI0
aI0
aI0
aI0
aI0
aaI00
a.(lp0
I48
aI2
aI-1
a(lp1
F3802.56
aF3870.9
aF3446.07
aF7489.35
aF3618.96
aF4331.9400000000005
aF4502.79
aF4294.71
aF4540.53
aF5443.2300000000005
aF5447.82
aF4544.61
aF3812.76
aF3959.13
aa(lp2
I0
aI0
aI0
aI0
aI0
aI0
aI0
aI0
aI0
aI0
aI0
aI0
aI0
aI0
aaI00
a.(lp0
I49
aI2
aI-1
a(lp1
F3802.56
aF3870.9
aF3446.07
aF7489.35
aF3618.96
aF4331.9400000000005
aF4502.79
aF4294.71
aF4540.53
aF5443.2300000000005
aF5447.82
aF4544.61
aF3812.76
aF3959.13
aa(lp2
I0
aI0
aI0
aI0
aI0
aI0
aI0
aI0
aI0
aI0
aI0
aI0
aI0
aI0
aaI00
a.(lp0
I50
aI2
aI-1
a(lp1
F3802.56
aF3870.9
aF3446.07
aF7489.35
aF3618.96
aF4331.9400000000005
aF4502.79
aF4294.71
aF4540.53
aF5443.2300000000005
aF5447.82
aF4544.61
aF3812.76
aF3959.13
aa(lp2
I0
aI0
aI0
aI0
aI0
aI0
aI0
aI0
aI0
aI0
aI0
aI0
aI0
aI0
aaI00
a.(lp0
I51
aI2
aI-1
a(lp1
F3802.56
aF3870.9
aF3446.07
aF7489.35
aF3618.96
aF4331.9400000000005
aF4502.79
aF4294.71
aF4540.53
aF5443.2300000000005
aF5447.82
aF4544.61
aF3812.76
aF3959.13
aa(lp2
I0
aI0
aI0
aI0
aI0
aI0
aI0
aI0
aI0
aI0
aI0
aI0
aI0
aI0
aaI00
a.(lp0
I52
aI2
aI-1
a(lp1
F3802.56
aF3870.9
aF3446.07
aF7489.35
aF3618.96
aF4331.9400000000005
aF4502.79
aF4294.71
aF4540.53
aF5443.2300000000005
aF5447.82
aF4544.61
aF3812.76
aF3959.13
aa(lp2
I0
aI0
aI0
aI0
aI0
aI0
aI0
aI0
aI0
aI0
aI0
aI0
aI0
aI0
aaI00
a.(lp0
I53
aI2
aI-1
a(lp1
F3679.65
aF3834.1800000000003
aF3337.44
aF7442.9400000000005
aF3576.12
aF4307.46
aF4500.24
aF4197.81
aF4437.51
aF5366.22
aF5339.7
aF4237.59
aF3770.4300000000003
aF3832.65
aa(lp2
I0
aI0
aI0
aI0
aI0
aI0
aI0
aI0
aI0
aI0
aI0
aI0
aI0
aI0
aaI00
a.(lp0
I54
aI2
aI-1
a(lp1
F3679.65
aF3834.1800000000003
aF3337.44
aF7442.9400000000005
aF3576.12
aF4307.46
aF4500.24
aF4197.81
aF4437.51
aF5366.22
aF5339.7
aF4237.59
aF3770.4300000000003
aF3832.65
aa(lp2
I0
aI0
aI0
aI0
aI0
aI0
aI0
aI0
aI0
aI0
aI0
aI0
aI0
aI0
aaI00
a.(lp0
I55
aI2
aI-1
a(lp1
F3679.65
aF3834.1800000000003
aF3337.44
aF7442.9400000000005
aF3576.12
aF4307.46
aF4500.24
aF4197.81
aF4437.51
aF5366.22
aF5339.7
aF4237.59
aF3770.4300000000003
aF3832.65
aa(lp2
I0
aI0
aI0
aI0
aI0
aI0
aI0
aI0
aI0
aI0
aI0
aI0
aI0
aI0
aaI00
a.(lp0
I56
aI2
aI-1
a(lp1
F3679.65
aF3834.1800000000003
aF3337.44
aF7442.9400000000005
aF3576.12
aF4307.46
aF4500.24
aF4197.81
aF4437.51
aF5366.22
aF5339.7
aF4237.59
aF3770.4300000000003
aF3832.65
aa(lp2
I0
aI0
aI0
aI0
aI0
aI0
aI0
aI0
aI0
aI0
aI0
aI0
aI0
aI0
aaI00
a.(lp0
I57
aI2
aI-1
a(lp1
F3679.65
aF3834.1800000000003
aF3337.44
aF7442.9400000000005
aF3576.12
aF4307.46
aF4500.24
aF4197.81
aF4437.51
aF5366.22
aF5339.7
aF4237.59
aF3770.4300000000003
aF3832.65
aa(lp2
I0
aI0
aI0
aI0
aI0
aI0
aI0
aI0
aI0
aI0
aI0
aI0
aI0
aI0
aaI00
a.(lp0
I58
aI2
aI-1
a(lp1
F3679.65
aF3834.1800000000003
aF3337.44
aF7442.9400000000005
aF3576.12
aF4307.46
aF4500.24
aF4197.81
aF4437.51
aF5366.22
aF5339.7
aF4237.59
aF3770.4300000000003
aF3832.65
aa(lp2
I0
aI0
aI0
aI0
aI0
aI0
aI0
aI0
aI0
aI0
aI0
aI0
aI0
aI0
aaI00
a.(lp0
I59
aI2
aI-1
a(lp1
F3679.65
aF3834.1800000000003
aF3337.44
aF7442.9400000000005
aF3576.12
aF4307.46
aF4500.24
aF4197.81
aF4437.51
aF5366.22
aF5339.7
aF4237.59
aF3770.4300000000003
aF3832.65
aa(lp2
I0
aI0
aI0
aI0
aI0
aI0
aI0
aI0
aI0
aI0
aI0
aI0
aI0
aI0
aaI00
a.(lp0
I60
aI2
aI-1
a(lp1
F3679.65
aF3834.1800000000003
aF3337.44
aF7442.9400000000005
aF3576.12
aF4307.46
aF4500.24
aF4197.81
aF4437.51
aF5366.22
aF5339.7
aF4237.59
aF3770.4300000000003
aF3832.65
aa(lp2
I0
aI0
aI0
aI0
aI0
aI0
aI0
aI0
aI0
aI0
aI0
aI0
aI0
aI0
aaI00
a.(lp0
I61
aI2
aI-1
a(lp1
F3606.21
aF3783.1800000000003
aF3273.18
aF7426.62
aF3508.8
aF4299.3
aF4498.71
aF4121.31
aF4374.78
aF5295.33
aF5256.06
aF3996.36
aF3718.41
aF3731.16
aa(lp2
I0
aI0
aI0
aI0
aI0
aI0
aI0
aI0
aI0
aI0
aI0
aI0
aI0
aI0
aaI00
a.(lp0
I62
aI2
aI-1
a(lp1
F3606.21
aF3783.1800000000003
aF3273.18
aF7426.62
aF3508.8
aF4299.3
aF4498.71
aF4121.31
aF4374.78
aF5295.33
aF5256.06
aF3996.36
aF3718.41
aF3731.16
aa(lp2
I0
aI0
aI0
aI0
aI0
aI0
aI0
aI0
aI0
aI0
aI0
aI0
aI0
aI0
aaI00
a.(lp0
I63
aI2
aI-1
a(lp1
F3606.21
aF3783.1800000000003
aF3273.18
aF7426.62
aF3508.8
aF4299.3
aF4498.71
aF4121.31
aF4374.78
aF5295.33
aF5256.06
aF3996.36
aF3718.41
aF3731.16
aa(lp2
I0
aI0
aI0
aI0
aI0
aI0
aI0
aI0
aI0
aI0
aI0
aI0
aI0
aI0
aaI00
a.(lp0
I64
aI2
aI-1
a(lp1
F3606.21
aF3783.1800000000003
aF3273.18
aF7426.62
aF3508.8
aF4299.3
aF4498.71
aF4121.31
aF4374.78
aF5295.33
aF5256.06
aF3996.36
aF3718.41
aF3731.16
aa(lp2
I0
aI0
aI0
aI0
aI0
aI0
aI0
aI0
aI0
aI0
aI0
aI0
aI0
aI0
aaI00
a.(lp0
I65
aI2
aI-1
a(lp1
F3606.21
aF3783.1800000000003
aF3273.18
aF7426.62
aF3508.8
aF4299.3
aF4498.71
aF4121.31
aF4374.78
aF5295.33
aF5256.06
aF3996.36
aF3718.41
aF3731.16
aa(lp2
I0
aI0
aI0
aI0
aI0
aI0
aI0
aI0
aI0
aI0
aI0
aI0
aI0
aI0
aaI00
a.(lp0
I66
aI2
aI-1
a(lp1
F3606.21
aF3783.1800000000003
aF3273.18
aF7426.62
aF3508.8
aF4299.3
aF4498.71
aF4121.31
aF4374.78
aF5295.33
aF5256.06
aF3996.36
aF3718.41
aF3731.16
aa(lp2
I0
aI0
aI0
aI0
aI0
aI0
aI0
aI0
aI0
aI0
aI0
aI0
aI0
aI0
aaI00
a.(lp0
I67
aI2
aI-1
a(lp1
F3727.08
aF3821.4300000000003
aF3375.18
aF7437.33
aF3550.62
aF4324.29
aF4500.24
aF4194.24
aF4457.4
aF5307.57
aF5315.22
aF4221.27
aF3748.5
aF3837.2400000000002
aa(lp2
I0
aI0
aI0
aI0
aI0
aI0
aI0
aI0
aI0
aI0
aI0
aI0
aI0
aI0
aaI00
a.(lp0
I68
aI2
aI-1
a(lp1
F3858.15
aF3910.6800000000003
aF3500.13
aF7443.45
aF3670.98
aF4347.24
aF4501.77
aF4308.4800000000005
aF4555.83
aF5369.28
aF5397.33
aF4627.2300000000005
aF3863.25
aF3986.67
aa(lp2
I0
aI0
aI0
aI0
aI0
aI0
aI0
aI0
aI0
aI0
aI0
aI0
aI0
aI0
aaI00
a.(lp0
I69
aI2
aI-1
a(lp1
F3812.25
aF3894.87
aF3470.55
aF7442.43
aF3678.63
aF4322.76
aF4499.22
aF4273.8
aF4506.36
aF5350.92
aF5367.75
aF4658.34
aF3868.35
aF3959.64
aa(lp2
I0
aI0
aI0
aI0
aI0
aI0
aI0
aI0
aI0
aI0
aI0
aI0
aI0
aI0
aaI00
a.(lp0
I70
aI2
aI-1
a(lp1
F3696.48
aF3806.64
aF3366.0
aF7348.08
aF3560.82
aF4288.08
aF4498.2
aF4141.2
aF4384.9800000000005
aF5233.62
aF5270.34
aF4349.79
aF3730.65
aF3837.2400000000002
aa(lp2
I0
aI0
aI0
aI0
aI0
aI0
aI0
aI0
aI0
aI0
aI0
aI0
aI0
aI0
aaI00
a.(lp0
I71
aI2
aI-1
a(lp1
F3696.48
aF3810.7200000000003
aF3384.36
aF7241.49
aF3541.9500000000003
aF4299.3
aF4499.22
aF4123.86
aF4385.49
aF5180.07
aF5242.8
aF4090.71
aF3701.07
aF3841.83
aa(lp2
I0
aI0
aI0
aI0
aI0
aI0
aI0
aI0
aI0
aI0
aI0
aI0
aI0
aI0
aaI00
a.(lp0
I72
aI2
aI-1
a(lp1
F3812.25
aF3905.58
aF3512.88
aF7241.49
aF3662.82
aF4333.9800000000005
aF4500.75
aF4247.28
aF4506.36
aF5259.12
aF5327.97
aF4167.72
aF3845.91
aF3975.96
aa(lp2
I0
aI0
aI0
aI0
aI0
aI0
aI0
aI0
aI0
aI0
aI0
aI0
aI0
aI0
aaI00
a.(lp0
I73
aI2
aI-1
a(lp1
F3890.79
aF3961.17
aF3579.69
aF7270.05
aF3729.63
aF4341.63
aF4503.3
aF4320.21
aF4562.46
aF5322.87
aF5407.02
aF4548.6900000000005
aF3940.26
aF4056.03
aa(lp2
I0
aI0
aI0
aI0
aI0
aI0
aI0
aI0
aI0
aI0
aI0
aI0
aI0
aI0
aaI00
a.(lp0
I74
aI2
aI-1
a(lp1
F3825.51
aF3905.07
aF3516.4500000000003
aF7211.91
aF3657.21
aF4317.15
aF4500.75
aF4230.45
aF4468.11
aF5237.7
aF5352.96
aF4621.11
aF3866.31
aF3985.14
aa(lp2
I0
aI0
aI0
aI0
aI0
aI0
aI0
aI0
aI0
aI0
aI0
aI0
aI0
aI0
aaI00
a.(lp0
I75
aI2
aI-1
a(lp1
F3724.02
aF3814.8
aF3438.42
aF7124.7
aF3571.53
aF4299.3
aF4498.2
aF4117.74
aF4370.1900000000005
aF5127.03
aF5242.8
aF4292.67
aF3765.84
aF3872.4300000000003
aa(lp2
I0
aI0
aI0
aI0
aI0
aI0
aI0
aI0
aI0
aI0
aI0
aI0
aI0
aI0
aaI00
a.(lp0
I76
aI2
aI-1
a(lp1
F3757.6800000000003
aF3845.91
aF3470.55
aF7118.58
aF3605.19
aF4313.58
aF4502.28
aF4149.87
aF4414.05
aF5146.92
aF5238.72
aF4104.99
aF3803.58
aF3888.2400000000002
aa(lp2
I0
aI0
aI0
aI0
aI0
aI0
aI0
aI0
aI0
aI0
aI0
aI0
aI0
aI0
aaI00
a.(lp0
I77
aI2
aI-1
a(lp1
F3863.76
aF3960.66
aF3561.33
aF7149.6900000000005
aF3717.9
aF4336.53
aF4504.83
aF4258.5
aF4516.05
aF5233.11
aF5317.77
aF4239.12
aF3918.33
aF3994.83
aa(lp2
I0
aI0
aI0
aI0
aI0
aI0
aI0
aI0
aI0
aI0
aI0
aI0
aI0
aI0
aaI00
a.(lp0
I78
aI2
aI-1
a(lp1
F3875.4900000000002
aF3990.2400000000002
aF3581.2200000000003
aF7150.2
aF3766.86
aF4334.49
aF4502.28
aF4279.41
aF4521.66
aF5243.31
aF5345.31
aF4423.74
aF3934.14
aF4022.37
aa(lp2
I0
aI0
aI0
aI0
aI0
aI0
aI0
aI0
aI0
aI0
aI0
aI0
aI0
aI0
aaI00
a.(lp0
I79
aI2
aI-1
a(lp1
F3787.77
aF3921.9
aF3506.76
aF7106.85
aF3685.77
aF4310.01
aF4501.77
aF4185.06
aF4426.8
aF5149.47
aF5280.54
aF4368.15
aF3838.26
aF3944.34
aa(lp2
I0
aI0
aI0
aI0
aI0
aI0
aI0
aI0
aI0
aI0
aI0
aI0
aI0
aI0
aaI00
a.(lp0
I81
aI2
aI-1
a(lp1
F3820.92
aF3933.63
aF3537.87
aF7087.9800000000005
aF3674.04
aF4324.29
aF4502.79
aF4195.77
aF4459.95
aF5112.24
aF5269.83
aF4301.34
aF3870.9
aF3963.21
aa(lp2
I0
aI0
aI0
aI0
aI0
aI0
aI0
aI0
aI0
aI0
aI0
aI0
aI0
aI0
aaI00
a.(lp0
I84
aI2
aI-1
a(lp1
F3796.9500000000003
aF3860.19
aF3502.17
aF7020.66
aF3612.84
aF4297.26
aF4498.2
aF4110.6
aF4362.03
aF4991.37
aF5175.99
aF4058.07
aF3823.98
aF3910.17
aa(lp2
I0
aI0
aI0
aI0
aI0
aI0
aI0
aI0
aI0
aI0
aI0
aI0
aI0
aI0
aaI00
a.(lp0
I88
aI2
aI-1
a(lp1
F3856.11
aF3946.89
aF3566.94
aF6987.0
aF3720.96
aF4305.93
aF4500.75
aF4167.72
aF4412.01
aF5009.22
aF5219.34
aF4198.83
aF3933.63
aF3968.82
aa(lp2
I0
aI0
aI0
aI0
aI0
aI0
aI0
aI0
aI0
aI0
aI0
aI0
aI0
aI0
aaI00
a.(lp0
I90
aI2
aI-1
a(lp1
F3902.01
aF3958.11
aF3619.4700000000003
aF6979.35
aF3757.6800000000003
aF4340.61
aF4502.79
aF4204.4400000000005
aF4467.09
aF4998.51
aF5240.25
aF4238.61
aF3901.5
aF4007.58
aa(lp2
I0
aI0
aI0
aI0
aI0
aI0
aI0
aI0
aI0
aI0
aI0
aI0
aI0
aI0
aaI00
a.(lp0
I93
aI2
aI-1
a(lp1
F3827.04
aF3920.88
aF3552.15
aF6903.36
aF3699.03
aF4295.7300000000005
aF4499.7300000000005
aF4121.82
aF4370.1900000000005
aF4914.36
aF5196.9
aF4367.13
aF3892.83
aF3966.78
aa(lp2
I0
aI0
aI0
aI0
aI0
aI0
aI0
aI0
aI0
aI0
aI0
aI0
aI0
aI0
aaI00
a.(lp0
I96
aI2
aI-1
a(lp1
F4031.04
aF4068.78
aF3753.6
aF6933.45
aF3886.2000000000003
aF4347.75
aF4510.4400000000005
aF4307.46
aF4546.65
aF5062.77
aF5256.06
aF4544.61
aF4072.86
aF4153.4400000000005
aa(lp2
I0
aI0
aI0
aI0
aI0
aI0
aI0
aI0
aI0
aI0
aI0
aI0
aI0
aI0
aaI00
a.(lp0
I99
aI2
aI-1
a(lp1
F3871.92
aF3967.8
aF3612.84
aF6837.57
aF3759.7200000000003
aF4317.66
aF4499.22
aF4150.38
aF4414.05
aF4895.49
aF5133.15
aF4127.9400000000005
aF3983.61
aF3983.61
aa(lp2
I0
aI0
aI0
aI0
aI0
aI0
aI0
aI0
aI0
aI0
aI0
aI0
aI0
aI0
aaI00
a.(lp0
I102
aI2
aI-1
a(lp1
F3895.38
aF3994.32
aF3642.42
aF6824.82
aF3782.16
aF4304.91
aF4500.75
aF4147.32
aF4395.18
aF4871.01
aF5142.33
aF4252.38
aF3978.0
aF4021.35
aa(lp2
I0
aI0
aI0
aI0
aI0
aI0
aI0
aI0
aI0
aI0
aI0
aI0
aI0
aI0
aaI00
a.(lp0
I105
aI2
aI-1
a(lp1
F4031.04
aF4131.0
aF3772.98
aF6837.57
aF3867.84
aF4336.53
aF4502.79
aF4278.39
aF4525.2300000000005
aF4966.89
aF5218.83
aF4532.37
aF4074.39
aF4167.72
aa(lp2
I0
aI0
aI0
aI0
aI0
aI0
aI0
aI0
aI0
aI0
aI0
aI0
aI0
aI0
aaI00
a.(lp0
I107
aI2
aI-1
a(lp1
F3864.27
aF4030.02
aF3624.57
aF6745.77
aF3746.46
aF4298.79
aF4498.71
aF4101.42
aF4355.4
aF4756.77
aF5083.68
aF4020.84
aF3938.2200000000003
aF3990.75
aa(lp2
I0
aI0
aI0
aI0
aI0
aI0
aI0
aI0
aI0
aI0
aI0
aI0
aI0
aI0
aaI00
a.(lp0
I111
aI2
aI-1
a(lp1
F3934.14
aF4073.88
aF3705.15
aF6707.52
aF3816.84
aF4307.46
aF4499.22
aF4149.36
aF4395.18
aF4797.57
aF5116.83
aF4166.1900000000005
aF3971.88
aF4059.6
aa(lp2
I0
aI0
aI0
aI0
aI0
aI0
aI0
aI0
aI0
aI0
aI0
aI0
aI0
aI0
aaI00
a.(lp0
I114
aI2
aI-1
a(lp1
F4064.19
aF4278.9
aF3836.73
aF6755.46
aF3968.82
aF4358.46
aF4506.87
aF4321.2300000000005
aF4566.54
aF4953.12
aF5216.28
aF4614.4800000000005
aF4138.65
aF4213.11
aa(lp2
I0
aI0
aI0
aI0
aI0
aI0
aI0
aI0
aI0
aI0
aI0
aI0
aI0
aI0
aaI00
a.(lp0
I117
aI2
aI-1
a(lp1
F3896.91
aF4117.74
aF3679.65
aF6666.21
aF3815.31
aF4321.74
aF4502.79
aF4119.27
aF4386.0
aF4705.77
aF5039.31
aF4028.4900000000002
aF3963.21
aF4011.66
aa(lp2
I0
aI0
aI0
aI0
aI0
aI0
aI0
aI0
aI0
aI0
aI0
aI0
aI0
aI0
aaI00
a.(lp0
I120
aI2
aI0
a(lp1
F3989.2200000000003
aF4174.86
aF3777.57
aF6634.59
aF3870.39
aF4324.29
aF4504.32
aF4193.7300000000005
aF4435.9800000000005
aF4798.08
aF5117.85
aF4478.82
aF4081.53
aF4113.66
aa(lp2
I0
aI0
aI0
aI0
aI0
aI0
aI0
aI0
aI0
aI0
aI0
aI0
aI0
aI0
aaI00
a.(lp0
I37
aI2
aI-1
a(lp1
F4045.83
aF4259.52
aF3974.94
aF6088.89
aF4001.9700000000003
aF4329.39
aF4505.85
aF4146.81
aF4391.1
aF4464.03
aF4948.53
aF4283.49
aF4219.74
aF4219.74
aa(lp2
I0
aI0
aI0
aI0
aI0
aI0
aI0
aI0
aI0
aI0
aI0
aI0
aI0
aI0
aaI00
a.(lp0
I40
aI2
aI-1
a(lp1
F4150.38
aF4370.1900000000005
aF4086.63
aF6101.13
aF4100.4
aF4366.11
aF4508.4
aF4266.15
aF4515.54
aF4599.18
aF5029.11
aF4500.24
aF4339.59
aF4333.47
aa(lp2
I0
aI0
aI0
aI0
aI0
aI0
aI0
aI0
aI0
aI0
aI0
aI0
aI0
aI0
aaI00
a.(lp0
I43
aI2
aI-1
a(lp1
F4033.59
aF4249.32
aF3991.26
aF6031.77
aF3974.94
aF4344.6900000000005
aF4504.32
aF4135.59
aF4405.89
aF4459.95
aF4926.6
aF4258.5
aF4234.02
aF4195.26
aa(lp2
I0
aI0
aI0
aI0
aI0
aI0
aI0
aI0
aI0
aI0
aI0
aI0
aI0
aI0
aaI00
a.(lp0
I46
aI2
aI-1
a(lp1
F4047.36
aF4268.7
aF4005.03
aF6023.61
aF4009.11
aF4332.45
aF4503.3
aF4139.16
aF4382.9400000000005
aF4441.08
aF4936.29
aF4184.04
aF4240.65
aF4229.43
aa(lp2
I0
aI0
aI0
aI0
aI0
aI0
aI0
aI0
aI0
aI0
aI0
aI0
aI0
aI0
aaI00
a.(lp0
I48
aI2
aI-1
a(lp1
F4104.99
aF4323.27
aF4069.29
aF6040.95
aF4071.84
aF4367.13
aF4507.38
aF4203.42
aF4469.64
aF4478.82
aF4949.55
aF4206.99
aF4282.9800000000005
aF4267.68
aa(lp2
I0
aI0
aI0
aI0
aI0
aI0
aI0
aI0
aI0
aI0
aI0
aI0
aI0
aI0
aaI00
a.(lp0
I51
aI2
aI-1
a(lp1
F4021.35
aF4221.27
aF3989.73
aF5950.17
aF3970.86
aF4325.31
aF4504.83
aF4093.77
aF4347.24
aF4415.58
aF4883.76
aF4319.7
aF4223.82
aF4193.7300000000005
aa(lp2
I0
aI0
aI0
aI0
aI0
aI0
aI0
aI0
aI0
aI0
aI0
aI0
aI0
aI0
aaI00
a.(lp0
I54
aI2
aI-1
a(lp1
F4181.49
aF4387.02
aF4154.46
aF6012.900000000001
aF4132.53
aF4375.8
aF4512.4800000000005
aF4278.39
aF4521.66
aF4560.93
aF5019.93
aF4518.09
aF4375.8
aF4381.92
aa(lp2
I0
aI0
aI0
aI0
aI0
aI0
aI0
aI0
aI0
aI0
aI0
aI0
aI0
aI0
aaI00
a.(lp0
I57
aI2
aI-1
a(lp1
F4053.9900000000002
aF4307.46
aF4035.63
aF5952.21
aF4037.67
aF4351.32
aF4508.4
aF4147.83
aF4416.6
aF4407.42
aF4890.39
aF4187.1
aF4254.93
aF4252.38
aa(lp2
I0
aI0
aI0
aI0
aI0
aI0
aI0
aI0
aI0
aI0
aI0
aI0
aI0
aI0
aaI00
a.(lp0
I59
aI2
aI-1
a(lp1
F4144.77
aF4355.91
aF4124.88
aF5940.99
aF4114.68
aF4359.99
aF4505.34
aF4227.9
aF4472.1900000000005
aF4508.4
aF4969.4400000000005
aF4317.15
aF4354.89
aF4334.49
aa(lp2
I0
aI0
aI0
aI0
aI0
aI0
aI0
aI0
aI0
aI0
aI0
aI0
aI0
aI0
aaI00
a.(lp0
I62
aI2
aI-1
a(lp1
F4139.16
aF4357.95
aF4119.27
aF5932.83
aF4121.31
aF4376.31
aF4510.4400000000005
aF4219.74
aF4481.88
aF4466.07
aF4931.7
aF4439.55
aF4312.56
aF4343.67
aa(lp2
I0
aI0
aI0
aI0
aI0
aI0
aI0
aI0
aI0
aI0
aI0
aI0
aI0
aI0
aaI00
a.(lp0
I65
aI2
aI-1
a(lp1
F4029.51
aF4242.18
aF4018.29
aF5851.74
aF3991.77
aF4335.0
aF4504.32
aF4086.12
aF4344.18
aF4369.17
aF4826.13
aF3976.4700000000003
aF4247.28
aF4202.4
aa(lp2
I0
aI0
aI0
aI0
aI0
aI0
aI0
aI0
aI0
aI0
aI0
aI0
aI0
aI0
aaI00
a.(lp0
I68
aI2
aI-1
a(lp1
F4168.74
aF4388.04
aF4157.52
aF5898.150000000001
aF4165.68
aF4363.05
aF4507.38
aF4250.34
aF4490.04
aF4526.25
aF4953.12
aF4581.84
aF4419.15
aF4368.66
aa(lp2
I0
aI0
aI0
aI0
aI0
aI0
aI0
aI0
aI0
aI0
aI0
aI0
aI0
aI0
aaI00
a.(lp0
I71
aI2
aI-1
a(lp1
F4141.71
aF4367.13
aF4134.06
aF5861.9400000000005
aF4132.02
aF4377.33
aF4507.38
aF4222.8
aF4486.47
aF4467.6
aF4908.24
aF4175.88
aF4366.11
aF4340.61
aa(lp2
I0
aI0
aI0
aI0
aI0
aI0
aI0
aI0
aI0
aI0
aI0
aI0
aI0
aI0
aaI00
a.(lp0
I74
aI2
aI-1
a(lp1
F4056.54
aF4262.07
aF4046.34
aF5781.36
aF4030.53
aF4333.47
aF4502.28
aF4092.2400000000002
aF4344.6900000000005
aF4341.12
aF4824.6
aF4276.86
aF4256.97
aF4247.28
aa(lp2
I0
aI0
aI0
aI0
aI0
aI0
aI0
aI0
aI0
aI0
aI0
aI0
aI0
aI0
aaI00
a.(lp0
I77
aI2
aI-1
a(lp1
F4185.57
aF4426.29
aF4187.61
aF5851.2300000000005
aF4196.79
aF4371.21
aF4508.4
aF4263.09
aF4510.95
aF4479.84
aF4956.18
aF4443.12
aF4434.45
aF4412.52
aa(lp2
I0
aI0
aI0
aI0
aI0
aI0
aI0
aI0
aI0
aI0
aI0
aI0
aI0
aI0
aaI00
a.(lp0
I80
aI2
aI-1
a(lp1
F4091.2200000000003
aF4330.92
aF4099.89
aF5810.43
aF4119.27
aF4362.54
aF4507.38
aF4163.64
aF4429.86
aF4418.64
aF4857.75
aF4224.84
aF4330.41
aF4274.82
aa(lp2
I0
aI0
aI0
aI0
aI0
aI0
aI0
aI0
aI0
aI0
aI0
aI0
aI0
aI0
aaI00
a.(lp0
I82
aI2
aI-1
a(lp1
F4151.4
aF4360.5
aF4153.4400000000005
aF5814.51
aF4123.86
aF4353.87
aF4504.83
aF4206.99
aF4447.71
aF4466.58
aF4905.18
aF4305.93
aF4393.65
aF4363.56
aa(lp2
I0
aI0
aI0
aI0
aI0
aI0
aI0
aI0
aI0
aI0
aI0
aI0
aI0
aI0
aaI00
a.(lp0
I85
aI2
aI-1
a(lp1
F4172.82
aF4402.83
aF4179.96
aF5814.0
aF4201.89
aF4379.37
aF4509.42
aF4238.1
aF4496.67
aF4452.3
aF4918.4400000000005
aF4515.03
aF4383.45
aF4367.13
aa(lp2
I0
aI0
aI0
aI0
aI0
aI0
aI0
aI0
aI0
aI0
aI0
aI0
aI0
aI0
aaI00
a.(lp0
I88
aI2
aI-1
a(lp1
F4055.01
aF4267.68
aF4067.25
aF5731.38
aF4056.03
aF4337.55
aF4502.79
aF4090.2000000000003
aF4350.81
aF4327.86
aF4803.6900000000005
aF3965.76
aF4270.2300000000005
aF4238.61
aa(lp2
I0
aI0
aI0
aI0
aI0
aI0
aI0
aI0
aI0
aI0
aI0
aI0
aI0
aI0
aaI00
a.(lp0
I91
aI2
aI0
a(lp1
F4178.43
aF4377.84
aF4212.09
aF5764.53
aF4188.12
aF4364.58
aF4506.36
aF4243.2
aF4478.82
aF4479.33
aF4945.47
aF4618.56
aF4433.43
aF4417.62
aa(lp2
I0
aI0
aI0
aI0
aI0
aI0
aI0
aI0
aI0
aI0
aI0
aI0
aI0
aI0
aaI00
a.(lp0
I93
aI2
aI-1
a(lp1
F4052.46
aF4260.54
aF4099.89
aF5695.17
aF4058.07
aF4344.18
aF4504.32
aF4099.38
aF4363.05
aF4329.39
aF4800.12
aF4097.34
aF4283.49
aF4260.54
aa(lp2
I0
aI0
aI0
aI0
aI0
aI0
aI0
aI0
aI0
aI0
aI0
aI0
aI0
aI0
aaI00
a.(lp0
I96
aI2
aI-1
a(lp1
F4147.83
aF4368.15
aF4183.53
aF5724.75
aF4191.6900000000005
aF4352.85
aF4506.87
aF4205.46
aF4439.55
aF4424.25
aF4889.88
aF4584.39
aF4387.53
aF4409.97
aa(lp2
I0
aI0
aI0
aI0
aI0
aI0
aI0
aI0
aI0
aI0
aI0
aI0
aI0
aI0
aaI00
a.(lp0
I99
aI2
aI0
a(lp1
F4191.18
aF4379.37
aF4223.82
aF5749.74
aF4205.97
aF4383.45
aF4508.4
aF4240.14
aF4499.7300000000005
aF4453.83
aF4893.96
aF4292.67
aF4431.9
aF4395.18
aa(lp2
I0
aI0
aI0
aI0
aI0
aI0
aI0
aI0
aI0
aI0
aI0
aI0
aI0
aI0
aaI00
a.(lp0
I102
aI2
aI0
a(lp1
F4073.88
aF4262.07
aF4117.2300000000005
aF5659.9800000000005
aF4074.9
aF4342.65
aF4503.3
aF4101.93
aF4361.52
aF4323.27
aF4777.17
aF4172.82
aF4300.32
aF4297.26
aa(lp2
I0
aI0
aI0
aI0
aI0
aI0
aI0
aI0
aI0
aI0
aI0
aI0
aI0
aI0
aaI00
a.(lp0
I105
aI2
aI-1
a(lp1
F4153.95
aF4354.38
aF4197.81
aF5677.32
aF4190.67
aF4356.42
aF4511.46
aF4188.12
aF4431.9
aF4376.82
aF4849.08
aF4234.02
aF4398.75
aF4405.89
aa(lp2
I0
aI0
aI0
aI0
aI0
aI0
aI0
aI0
aI0
aI0
aI0
aI0
aI0
aI0
aaI00
a.(lp0
I108
aI2
aI-1
a(lp1
F4210.56
aF4390.08
aF4259.52
aF5665.59
aF4224.84
aF4391.61
aF4509.93
aF4247.28
aF4508.91
aF4453.83
aF4893.96
aF4584.9
aF4469.13
aF4433.43
aa(lp2
I0
aI0
aI0
aI0
aI0
aI0
aI0
aI0
aI0
aI0
aI0
aI0
aI0
aI0
aaI00
a.(lp0
I111
aI2
aI-1
a(lp1
F4051.9500000000003
aF4276.86
aF4125.39
aF5618.67
aF4108.56
aF4348.26
aF4503.3
aF4094.28
aF4353.36
aF4303.89
aF4755.24
aF3970.35
aF4294.71
aF4270.2300000000005
aa(lp2
I0
aI0
aI0
aI0
aI0
aI0
aI0
aI0
aI0
aI0
aI0
aI0
aI0
aI0
aaI00
a.(lp0
I113
aI2
aI-1
a(lp1
F4236.06
aF4429.35
aF4324.8
aF5688.03
aF4281.45
aF4393.65
aF4510.95
aF4296.24
aF4540.02
aF4475.25
aF4927.11
aF4594.59
aF4495.65
aF4506.87
aa(lp2
I0
aI0
aI0
aI0
aI0
aI0
aI0
aI0
aI0
aI0
aI0
aI0
aI0
aI0
aaI00
a.(lp0
I116
aI2
aI-1
a(lp1
F4072.86
aF4269.72
aF4151.91
aF5598.27
aF4128.45
aF4350.3
aF4507.38
aF4106.52
aF4369.68
aF4285.53
aF4751.67
aF4012.17
aF4312.56
aF4294.71
aa(lp2
I0
aI0
aI0
aI0
aI0
aI0
aI0
aI0
aI0
aI0
aI0
aI0
aI0
aI0
aaI00
a.(lp0
I110
aI2
aI-1
a(lp1
F4112.13
aF4392.12
aF4317.15
aF5069.91
aF4214.64
aF4365.09
aF4503.81
aF4089.1800000000003
aF4345.2
aF4246.26
aF4579.29
aF3984.63
aF4420.17
aF4435.9800000000005
aa(lp2
I0
aI0
aI0
aI0
aI0
aI0
aI0
aI0
aI0
aI0
aI0
aI0
aI0
aI0
aaI00
a.(lp0
I22
aI2
aI-1
a(lp1
F4163.13
aF4390.08
aF4336.53
aF4990.86
aF4244.7300000000005
aF4373.76
aF4506.87
aF4083.57
aF4336.02
aF4267.17
aF4517.58
aF3952.5
aF4426.8
aF4451.28
aa(lp2
I0
aI0
aI0
aI0
aI0
aI0
aI0
aI0
aI0
aI0
aI0
aI0
aI0
aI0
aaI00
a.(lp0
I64
aI2
aI-1
a(lp1
F4224.33
aF4471.68
aF4387.53
aF4950.57
aF4270.2300000000005
aF4406.91
aF4508.4
aF4122.33
aF4380.9
aF4281.45
aF4469.64
aF4123.86
aF4454.34
aF4490.55
aa(lp2
I0
aI0
aI0
aI0
aI0
aI0
aI0
aI0
aI0
aI0
aI0
aI0
aI0
aI0
aaI00
a.(lp0
I108
aI2
aI-1
a(lp1
F4283.49
aF4596.63
aF4425.27
aF4855.71
aF4310.01
aF4402.32
aF4513.5
aF4150.38
aF4383.96
aF4333.9800000000005
aF4502.79
aF4149.36
aF4499.22
aF4550.22
aa(lp2
I0
aI0
aI0
aI0
aI0
aI0
aI0
aI0
aI0
aI0
aI0
aI0
aI0
aI0
aaI00
a.(lp0
I25
aI2
aI-1
a(lp1
F4277.88
aF4591.53
aF4400.28
aF4746.06
aF4311.03
aF4407.42
aF4516.05
aF4114.17
aF4358.46
aF4319.7
aF4452.81
aF4150.38
aF4493.61
aF4505.34
aa(lp2
I0
aI0
aI0
aI0
aI0
aI0
aI0
aI0
aI0
aI0
aI0
aI0
aI0
aI0
aaI00
a.(lp0
I72
aI2
aI-1
a(lp1
F4274.31
aF4435.47
aF4410.4800000000005
aF4640.49
aF4286.55
aF4424.76
aF4513.5
aF4092.2400000000002
aF4351.32
aF4322.25
aF4412.01
aF4160.07
aF4504.83
aF4476.78
aa(lp2
I0
aI0
aI0
aI0
aI0
aI0
aI0
aI0
aI0
aI0
aI0
aI0
aI0
aI0
aaI00
a.(lp0
I123
aI2
aI-1
a(lp1
F4364.07
aF4391.61
aF4479.84
aF4680.78
aF4373.25
aF4454.34
aF4517.07
aF4150.89
aF4415.58
aF4397.22
aF4442.61
aF4098.87
aF4569.09
aF4532.88
aa(lp2
I0
aI0
aI0
aI0
aI0
aI0
aI0
aI0
aI0
aI0
aI0
aI0
aI0
aI0
aaI00
a.(lp0
I45
aI2
aI-1
a(lp1
F4438.53
aF4437.51
aF4553.28
aF4626.72
aF4447.71
aF4473.72
aF4519.62
aF4216.68
aF4472.1900000000005
aF4475.25
aF4504.83
aF4395.18
aF4624.17
aF4617.03
aa(lp2
I0
aI0
aI0
aI0
aI0
aI0
aI0
aI0
aI0
aI0
aI0
aI0
aI0
aI0
aaI00
a.(lp0
I63
aI2
aI-1
a(lp1
F4411.5
aF4420.68
aF4534.92
aF4592.55
aF4432.92
aF4473.21
aF4517.58
aF4192.71
aF4454.34
aF4443.63
aF4478.31
aF4292.67
aF4599.18
aF4590.0
aa(lp2
I0
aI0
aI0
aI0
aI0
aI0
aI0
aI0
aI0
aI0
aI0
aI0
aI0
aI0
aaI00
a.(lp0
I68
aI2
aI-1
a(lp1
F4430.37
aF4447.2
aF4563.4800000000005
aF4581.33
aF4459.95
aF4476.78
aF4519.11
aF4229.43
aF4479.33
aF4524.21
aF4514.01
aF4458.93
aF4643.55
aF4644.57
aa(lp2
I0
aI0
aI0
aI0
aI0
aI0
aI0
aI0
aI0
aI0
aI0
aI0
aI0
aI0
aaI00
a.(lp0
I104
aI2
aI-1
a(lp1
F4386.0
aF4395.6900000000005
aF4518.09
aF4530.84
aF4421.1900000000005
aF4475.76
aF4519.11
aF4178.43
aF4444.65
aF4467.09
aF4455.36
aF4221.78
aF4596.12
aF4588.9800000000005
aa(lp2
I0
aI0
aI0
aI0
aI0
aI0
aI0
aI0
aI0
aI0
aI0
aI0
aI0
aI0
aaI00
a.(lp0
I110
aI2
aI-1
a(lp1
F4417.11
aF4418.13
aF4547.67
aF4528.8
aF4457.4
aF4463.52
aF4520.64
aF4205.46
aF4445.67
aF4505.85
aF4509.42
aF4403.85
aF4635.39
aF4639.9800000000005
aa(lp2
I0
aI0
aI0
aI0
aI0
aI0
aI0
aI0
aI0
aI0
aI0
aI0
aI0
aI0
aaI00
a.(lp0
I116
aI2
aI-1
a(lp1
F4307.46
aF4246.26
aF4435.9800000000005
aF4448.22
aF4275.33
aF4429.86
aF4515.54
aF4049.91
aF4304.4
aF4357.95
aF4388.55
aF4009.62
aF4472.7
aF4504.32
aa(lp2
I0
aI0
aI0
aI0
aI0
aI0
aI0
aI0
aI0
aI0
aI0
aI0
aI0
aI0
aaI00
a.(lp0
I121
aI2
aI0
a(lp1
F4266.66
aF4257.99
aF4401.81
aF4467.09
aF4293.6900000000005
aF4434.45
aF4517.58
aF4042.77
aF4304.91
aF4349.79
aF4367.13
aF3896.91
aF4470.15
aF4464.54
aa(lp2
I0
aI0
aI0
aI0
aI0
aI0
aI0
aI0
aI0
aI0
aI0
aI0
aI0
aI0
aaI00
a.(lp0
I126
aI2
aI-1
a(lp1
F4293.18
aF4271.25
aF4413.54
aF4479.84
aF4302.87
aF4446.6900000000005
aF4516.56
aF4062.15
aF4329.9
aF4348.26
aF4370.7
aF3911.7000000000003
aF4472.7
aF4494.63
aa(lp2
I0
aI0
aI0
aI0
aI0
aI0
aI0
aI0
aI0
aI0
aI0
aI0
aI0
aI0
aaI00
a.(lp0
I3
aI2
aI-1
a(lp1
F4434.96
aF4407.93
aF4550.7300000000005
aF4558.38
aF4444.65
aF4481.88
aF4518.09
aF4219.74
aF4474.2300000000005
aF4505.85
aF4519.62
aF4436.49
aF4625.1900000000005
aF4652.7300000000005
aa(lp2
I0
aI0
aI0
aI0
aI0
aI0
aI0
aI0
aI0
aI0
aI0
aI0
aI0
aI0
aaI00
a.(lp0
I8
aI2
aI-1
a(lp1
F4450.77
aF4434.96
aF4571.64
aF4564.5
aF4474.74
aF4477.8
aF4521.15
aF4243.2
aF4484.9400000000005
aF4529.31
aF4529.82
aF4518.6
aF4662.42
aF4675.68
aa(lp2
I0
aI0
aI0
aI0
aI0
aI0
aI0
aI0
aI0
aI0
aI0
aI0
aI0
aI0
aaI00
a.(lp0
I13
aI2
aI-1
a(lp1
F4420.17
aF4383.96
aF4542.06
aF4542.06
aF4430.37
aF4466.58
aF4518.6
aF4199.85
aF4438.53
aF4485.96
aF4495.65
aF4224.33
aF4630.8
aF4643.55
aa(lp2
I0
aI0
aI0
aI0
aI0
aI0
aI0
aI0
aI0
aI0
aI0
aI0
aI0
aI0
aaI00
a.(lp0
I51
aI2
aI-1
a(lp1
F4260.03
aF4311.03
aF4397.22
aF4447.71
aF4309.5
aF4439.04
aF4515.03
aF4046.85
aF4303.38
aF4347.24
aF4373.25
aF4003.5
aF4455.36
aF4489.53
aa(lp2
I0
aI0
aI0
aI0
aI0
aI0
aI0
aI0
aI0
aI0
aI0
aI0
aI0
aI0
aaI00
a.(lp0
I56
aI2
aI-1
a(lp1
F4273.29
aF4299.81
aF4396.2
aF4423.74
aF4275.84
aF4444.65
aF4516.05
aF4038.1800000000003
aF4302.36
aF4338.57
aF4353.36
aF3908.13
aF4431.9
aF4480.35
aa(lp2
I0
aI0
aI0
aI0
aI0
aI0
aI0
aI0
aI0
aI0
aI0
aI0
aI0
aI0
aaI00
a.(lp0
I62
aI2
aI-1
a(lp1
F4382.43
aF4439.04
aF4499.22
aF4495.14
aF4410.99
aF4486.47
aF4520.13
aF4185.06
aF4449.75
aF4482.9
aF4460.46
aF4247.28
aF4599.6900000000005
aF4591.02
aa(lp2
I0
aI0
aI0
aI0
aI0
aI0
aI0
aI0
aI0
aI0
aI0
aI0
aI0
aI0
aaI00
a.(lp0
I67
aI2
aI-1
a(lp1
F4426.8
aF4460.46
aF4545.12
aF4490.04
aF4434.96
aF4486.9800000000005
aF4523.1900000000005
aF4215.66
aF4466.58
aF4495.14
aF4495.65
aF4410.99
aF4621.62
aF4643.55
aa(lp2
I0
aI0
aI0
aI0
aI0
aI0
aI0
aI0
aI0
aI0
aI0
aI0
aI0
aI0
aaI00
a.(lp0
I73
aI2
aI-1
a(lp1
F4353.36
aF4415.07
aF4477.8
aF4452.81
aF4364.58
aF4450.26
aF4517.58
aF4141.2
aF4378.35
aF4447.71
aF4457.91
aF4277.37
aF4572.15
aF4588.47
aa(lp2
I0
aI0
aI0
aI0
aI0
aI0
aI0
aI0
aI0
aI0
aI0
aI0
aI0
aI0
aaI00
a.(lp0
I78
aI2
aI-1
a(lp1
F4313.58
aF4363.05
aF4439.04
aF4427.31
aF4304.91
aF4440.06
aF4515.03
aF4078.98
aF4326.33
aF4366.62
aF4394.67
aF4025.94
aF4491.57
aF4520.64
aa(lp2
I0
aI0
aI0
aI0
aI0
aI0
aI0
aI0
aI0
aI0
aI0
aI0
aI0
aI0
aaI00
a.(lp0
I85
aI2
aI-1
a(lp1
F4395.6900000000005
aF4472.1900000000005
aF4514.01
aF4472.1900000000005
aF4407.42
aF4485.45
aF4522.68
aF4194.24
aF4453.83
aF4477.29
aF4467.09
aF4305.42
aF4602.75
aF4610.91
aa(lp2
I0
aI0
aI0
aI0
aI0
aI0
aI0
aI0
aI0
aI0
aI0
aI0
aI0
aI0
aaI00
a.(lp0
I90
aI2
aI-1
a(lp1
F4434.45
aF4494.12
aF4560.42
aF4446.18
aF4440.57
aF4487.49
aF4522.17
aF4227.9
aF4475.76
aF4515.54
aF4505.34
aF4487.49
aF4641.51
aF4657.32
aa(lp2
I0
aI0
aI0
aI0
aI0
aI0
aI0
aI0
aI0
aI0
aI0
aI0
aI0
aI0
aaI00
a.(lp0
I0
aI2
aI-1
a(lp1
F4256.97
aF4341.12
aF4387.53
aF4380.39
aF4300.32
aF4446.18
aF4513.5
aF4056.03
aF4305.42
aF4354.89
aF4380.9
aF4000.9500000000003
aF4482.39
aF4475.76
aa(lp2
I0
aI0
aI0
aI0
aI0
aI0
aI0
aI0
aI0
aI0
aI0
aI0
aI0
aI0
aaI00
a.(lp0
I6
aI2
aI-1
a(lp1
F4400.79
aF4430.37
aF4518.09
aF4413.54
aF4406.4
aF4497.6900000000005
aF4523.7
aF4182.51
aF4437.0
aF4439.55
aF4452.3
aF4288.59
aF4562.97
aF4613.97
aa(lp2
I0
aI0
aI0
aI0
aI0
aI0
aI0
aI0
aI0
aI0
aI0
aI0
aI0
aI0
aaI00
a.(lp0
I12
aI2
aI-1
a(lp1
F4394.16
aF4461.4800000000005
aF4532.88
aF4421.7
aF4405.89
aF4480.86
aF4518.09
aF4204.4400000000005
aF4443.63
aF4506.87
aF4503.81
aF4296.24
aF4633.35
aF4652.7300000000005
aa(lp2
I0
aI0
aI0
aI0
aI0
aI0
aI0
aI0
aI0
aI0
aI0
aI0
aI0
aI0
aaI00
a.(lp0
I17
aI2
aI-1
a(lp1
F4367.13
aF4417.62
aF4499.22
aF4421.1900000000005
aF4372.74
aF4466.58
aF4522.17
aF4160.07
aF4397.22
aF4463.52
aF4470.66
aF4226.88
aF4584.39
aF4616.01
aa(lp2
I0
aI0
aI0
aI0
aI0
aI0
aI0
aI0
aI0
aI0
aI0
aI0
aI0
aI0
aaI00
a.(lp0
I22
aI2
aI-1
a(lp1
F4323.27
aF4389.06
aF4455.87
aF4393.14
aF4345.71
aF4455.87
aF4515.54
aF4122.33
aF4361.01
aF4435.47
aF4432.92
aF4140.18
aF4549.71
aF4580.82
aa(lp2
I0
aI0
aI0
aI0
aI0
aI0
aI0
aI0
aI0
aI0
aI0
aI0
aI0
aI0
aaI00
a.(lp0
I28
aI2
aI-1
a(lp1
F4276.35
aF4335.51
aF4410.99
aF4386.51
aF4292.16
aF4458.42
aF4516.05
aF4077.4500000000003
aF4337.55
aF4354.89
aF4392.12
aF4087.65
aF4486.47
aF4504.83
aa(lp2
I0
aI0
aI0
aI0
aI0
aI0
aI0
aI0
aI0
aI0
aI0
aI0
aI0
aI0
aaI00
a.(lp0
I33
aI2
aI-1
a(lp1
F4313.07
aF4357.95
aF4428.33
aF4397.22
aF4339.08
aF4470.66
aF4516.56
aF4111.62
aF4372.2300000000005
aF4412.01
aF4410.4800000000005
aF4019.31
aF4516.05
aF4527.78
aa(lp2
I0
aI0
aI0
aI0
aI0
aI0
aI0
aI0
aI0
aI0
aI0
aI0
aI0
aI0
aaI00
a.(lp0
I39
aI2
aI-1
a(lp1
F4425.78
aF4469.13
aF4559.91
aF4426.8
aF4443.63
aF4492.08
aF4521.66
aF4237.59
aF4477.8
aF4530.84
aF4519.62
aF4435.9800000000005
aF4666.5
aF4671.09
aa(lp2
I0
aI0
aI0
aI0
aI0
aI0
aI0
aI0
aI0
aI0
aI0
aI0
aI0
aI0
aaI00
a.(lp0
I79
aI2
aI-1
a(lp1
F4335.51
aF4403.34
aF4469.13
aF4374.78
aF4366.11
aF4485.45
aF4516.56
aF4138.14
aF4400.79
aF4420.68
aF4442.61
aF4085.1
aF4539.0
aF4537.47
aa(lp2
I0
aI0
aI0
aI0
aI0
aI0
aI0
aI0
aI0
aI0
aI0
aI0
aI0
aI0
aaI00
a.(lp0
I85
aI2
aI-1
a(lp1
F4413.03
aF4476.27
aF4555.32
aF4405.89
aF4439.04
aF4494.12
aF4520.64
aF4222.29
aF4468.11
aF4518.09
aF4519.62
aF4425.78
aF4611.93
aF4659.36
aa(lp2
I0
aI0
aI0
aI0
aI0
aI0
aI0
aI0
aI0
aI0
aI0
aI0
aI0
aI0
aaI00
a.(lp0
I90
aI2
aI-1
a(lp1
F4384.47
aF4429.86
aF4515.54
aF4388.04
aF4397.7300000000005
aF4473.21
aF4517.58
aF4186.08
aF4422.21
aF4489.53
aF4496.16
aF4384.47
aF4596.63
aF4624.68
aa(lp2
I0
aI0
aI0
aI0
aI0
aI0
aI0
aI0
aI0
aI0
aI0
aI0
aI0
aI0
aaI00
a.(lp0
I96
aI2
aI-1
a(lp1
F4256.97
aF4298.28
aF4387.53
aF4339.08
aF4261.05
aF4450.26
aF4517.07
aF4034.1
aF4295.22
aF4351.32
aF4378.86
aF3952.5
aF4443.12
aF4465.56
aa(lp2
I0
aI0
aI0
aI0
aI0
aI0
aI0
aI0
aI0
aI0
aI0
aI0
aI0
aI0
aaI00
a.(lp0
I101
aI2
aI-1
a(lp1
F4235.55
aF4288.08
aF4379.37
aF4325.82
aF4248.3
aF4456.89
aF4517.07
aF4030.02
aF4297.26
aF4337.55
aF4371.21
aF3853.05
aF4442.61
aF4437.51
aa(lp2
I0
aI0
aI0
aI0
aI0
aI0
aI0
aI0
aI0
aI0
aI0
aI0
aI0
aI0
aaI00
a.(lp0
I106
aI2
aI-1
a(lp1
F4285.53
aF4343.67
aF4414.05
aF4368.66
aF4311.54
aF4472.1900000000005
aF4515.54
aF4068.78
aF4337.04
aF4353.36
aF4380.9
aF3963.7200000000003
aF4431.39
aF4454.85
aa(lp2
I0
aI0
aI0
aI0
aI0
aI0
aI0
aI0
aI0
aI0
aI0
aI0
aI0
aI0
aaI00
a.(lp0
I112
aI2
aI-1
a(lp1
F4424.76
aF4456.89
aF4557.87
aF4410.99
aF4434.96
aF4495.65
aF4521.66
aF4218.21
aF4466.07
aF4502.28
aF4508.4
aF4493.1
aF4611.93
aF4636.41
aa(lp2
I0
aI0
aI0
aI0
aI0
aI0
aI0
aI0
aI0
aI0
aI0
aI0
aI0
aI0
aaI00
a.(lp0
I117
aI2
aI-1
a(lp1
F4422.72
aF4453.83
aF4550.7300000000005
aF4413.54
aF4435.47
aF4492.08
aF4521.66
aF4218.21
aF4459.95
aF4532.37
aF4519.62
aF4406.4
aF4603.26
aF4620.09
aa(lp2
I0
aI0
aI0
aI0
aI0
aI0
aI0
aI0
aI0
aI0
aI0
aI0
aI0
aI0
aaI00
a.(lp0
I31
aI2
aI-1
a(lp1
F4253.4
aF4314.09
aF4364.58
aF4439.04
aF4263.6
aF4444.14
aF4515.03
aF4034.1
aF4293.18
aF4301.34
aF4391.1
aF3965.76
aF4402.83
aF4416.6
aa(lp2
I0
aI0
aI0
aI0
aI0
aI0
aI0
aI0
aI0
aI0
aI0
aI0
aI0
aI0
aaI00
a.(lp0
I36
aI2
aI-1
a(lp1
F4249.32
aF4298.79
aF4357.4400000000005
aF4429.35
aF4253.91
aF4456.89
aF4516.05
aF4022.88
aF4290.63
aF4288.59
aF4365.09
aF3844.89
aF4395.18
aF4398.75
aa(lp2
I0
aI0
aI0
aI0
aI0
aI0
aI0
aI0
aI0
aI0
aI0
aI0
aI0
aI0
aaI00
a.(lp0
I42
aI2
aI-1
a(lp1
F4355.91
aF4456.89
aF4489.02
aF4490.55
aF4390.08
aF4498.71
aF4520.64
aF4177.41
aF4441.59
aF4441.59
aF4488.0
aF4282.9800000000005
aF4542.57
aF4542.57
aa(lp2
I0
aI0
aI0
aI0
aI0
aI0
aI0
aI0
aI0
aI0
aI0
aI0
aI0
aI0
aaI00
a.(lp0
I47
aI2
aI-1
a(lp1
F4392.12
aF4476.27
aF4515.03
aF4498.2
aF4430.37
aF4493.61
aF4522.68
aF4213.11
aF4461.99
aF4486.47
aF4517.07
aF4461.4800000000005
aF4580.82
aF4593.06
aa(lp2
I0
aI0
aI0
aI0
aI0
aI0
aI0
aI0
aI0
aI0
aI0
aI0
aI0
aI0
aaI00
a.(lp0
I52
aI2
aI-1
a(lp1
F4404.36
aF4471.17
aF4531.86
aF4478.82
aF4427.82
aF4493.61
aF4523.1900000000005
aF4220.76
aF4458.93
aF4495.65
aF4523.7
aF4417.62
aF4584.9
aF4608.36
aa(lp2
I0
aI0
aI0
aI0
aI0
aI0
aI0
aI0
aI0
aI0
aI0
aI0
aI0
aI0
aaI00
a.(lp0
I57
aI2
aI-1
a(lp1
F4362.54
aF4439.55
aF4494.12
aF4463.01
aF4405.89
aF4482.39
aF4521.15
aF4173.84
aF4414.05
aF4452.81
aF4501.77
aF4266.15
aF4544.1
aF4561.95
aa(lp2
I0
aI0
aI0
aI0
aI0
aI0
aI0
aI0
aI0
aI0
aI0
aI0
aI0
aI0
aaI00
a.(lp0
I63
aI2
aI-1
a(lp1
F4237.08
aF4301.34
aF4374.78
aF4414.56
aF4275.33
aF4455.36
aF4515.54
aF4038.69
aF4293.6900000000005
aF4327.35
aF4386.51
aF3897.42
aF4409.46
aF4443.12
aa(lp2
I0
aI0
aI0
aI0
aI0
aI0
aI0
aI0
aI0
aI0
aI0
aI0
aI0
aI0
aaI00
a.(lp0
I69
aI2
aI-1
a(lp1
F4342.14
aF4421.7
aF4466.07
aF4459.95
aF4357.95
aF4496.16
aF4523.1900000000005
aF4155.99
aF4418.64
aF4433.43
aF4470.15
aF4342.65
aF4515.54
aF4520.13
aa(lp2
I0
aI0
aI0
aI0
aI0
aI0
aI0
aI0
aI0
aI0
aI0
aI0
aI0
aI0
aaI00
a.(lp0
I113
aI2
aI0
a(lp1
F4249.32
aF4421.7
aF4393.65
aF4364.58
aF4265.13
aF4464.03
aF4518.6
aF4060.11
aF4309.5
aF4325.31
aF4415.07
aF4069.29
aF4440.06
aF4438.53
aa(lp2
I0
aI0
aI0
aI0
aI0
aI0
aI0
aI0
aI0
aI0
aI0
aI0
aI0
aI0
aaI00
a.(lp0
I118
aI2
aI-1
a(lp1
F4218.72
aF4388.04
aF4355.4
aF4357.95
aF4254.42
aF4463.01
aF4517.58
aF4026.4500000000003
aF4290.12
aF4314.09
aF4376.82
aF3953.01
aF4402.32
aF4397.7300000000005
aa(lp2
I0
aI0
aI0
aI0
aI0
aI0
aI0
aI0
aI0
aI0
aI0
aI0
aI0
aI0
aaI00
a.(lp0
I124
aI2
aI-1
a(lp1
F4338.06
aF4492.08
aF4470.66
aF4418.13
aF4344.18
aF4507.89
aF4521.15
aF4159.05
aF4425.27
aF4420.17
aF4464.54
aF4166.1900000000005
aF4519.62
aF4520.64
aa(lp2
I0
aI0
aI0
aI0
aI0
aI0
aI0
aI0
aI0
aI0
aI0
aI0
aI0
aI0
aaI00
a.(lp0
I1
aI2
aI-1
a(lp1
F4379.88
aF4550.7300000000005
aF4506.87
aF4426.29
aF4419.15
aF4504.32
aF4521.15
aF4206.99
aF4451.79
aF4469.13
aF4522.68
aF4431.39
aF4566.03
aF4580.31
aa(lp2
I0
aI0
aI0
aI0
aI0
aI0
aI0
aI0
aI0
aI0
aI0
aI0
aI0
aI0
aaI00
a.(lp0
I6
aI2
aI-1
a(lp1
F4326.33
aF4485.45
aF4471.17
aF4398.24
aF4354.89
aF4482.39
aF4517.58
aF4150.38
aF4391.1
aF4423.2300000000005
aF4491.06
aF4322.76
aF4523.1900000000005
aF4540.02
aa(lp2
I0
aI0
aI0
aI0
aI0
aI0
aI0
aI0
aI0
aI0
aI0
aI0
aI0
aI0
aaI00
a.(lp0
I12
aI2
aI-1
a(lp1
F4212.6
aF4377.33
aF4350.81
aF4345.71
aF4236.57
aF4466.07
aF4515.54
aF4021.86
aF4287.06
aF4288.59
aF4395.18
aF3921.9
aF4397.7300000000005
aF4404.36
aa(lp2
I0
aI0
aI0
aI0
aI0
aI0
aI0
aI0
aI0
aI0
aI0
aI0
aI0
aI0
aaI00
a.(lp0
I17
aI2
aI-1
a(lp1
F4210.56
aF4384.9800000000005
aF4353.36
aF4345.71
aF4244.7300000000005
aF4470.66
aF4518.6
aF4030.53
aF4298.79
aF4303.38
aF4384.47
aF3870.39
aF4394.67
aF4394.16
aa(lp2
I0
aI0
aI0
aI0
aI0
aI0
aI0
aI0
aI0
aI0
aI0
aI0
aI0
aI0
aaI00
a.(lp0
I22
aI2
aI-1
a(lp1
F4275.33
aF4437.51
aF4404.87
aF4370.1900000000005
aF4300.83
aF4491.06
aF4518.6
aF4091.73
aF4357.95
aF4339.08
aF4428.84
aF4096.83
aF4452.3
aF4463.52
aa(lp2
I0
aI0
aI0
aI0
aI0
aI0
aI0
aI0
aI0
aI0
aI0
aI0
aI0
aI0
aaI00
a.(lp0
I69
aI2
aI-1
a(lp1
F4387.02
aF4523.7
aF4529.82
aF4403.34
aF4402.32
aF4517.58
aF4524.72
aF4217.1900000000005
aF4469.64
aF4482.9
aF4531.35
aF4516.05
aF4596.12
aF4600.2
aa(lp2
I0
aI0
aI0
aI0
aI0
aI0
aI0
aI0
aI0
aI0
aI0
aI0
aI0
aI0
aaI00
a.(lp0
I74
aI2
aI-1
a(lp1
F4390.59
aF4495.14
aF4539.0
aF4400.79
aF4405.89
aF4505.34
aF4523.1900000000005
aF4214.13
aF4456.38
aF4469.64
aF4525.2300000000005
aF4365.6
aF4574.1900000000005
aF4624.17
aa(lp2
I0
aI0
aI0
aI0
aI0
aI0
aI0
aI0
aI0
aI0
aI0
aI0
aI0
aI0
aaI00
a.(lp0
I80
aI2
aI-1
a(lp1
F4203.93
aF4349.28
aF4364.07
aF4341.12
aF4260.54
aF4460.97
aF4517.07
aF4027.4700000000003
aF4276.35
aF4288.59
aF4383.96
aF3883.14
aF4409.46
aF4422.72
aa(lp2
I0
aI0
aI0
aI0
aI0
aI0
aI0
aI0
aI0
aI0
aI0
aI0
aI0
aI0
aaI00
a.(lp0
I85
aI2
aI-1
a(lp1
F4215.15
aF4353.87
aF4373.76
aF4342.14
aF4258.5
aF4464.03
aF4517.58
aF4035.63
aF4294.71
aF4313.58
aF4399.77
aF3855.09
aF4423.74
aF4434.45
aa(lp2
I0
aI0
aI0
aI0
aI0
aI0
aI0
aI0
aI0
aI0
aI0
aI0
aI0
aI0
aaI00
a.(lp0
I90
aI2
aI-1
a(lp1
F4229.43
aF4356.42
aF4396.71
aF4353.36
aF4275.84
aF4480.86
aF4518.6
aF4057.05
aF4318.17
aF4321.2300000000005
aF4402.32
aF4114.68
aF4425.78
aF4442.61
aa(lp2
I0
aI0
aI0
aI0
aI0
aI0
aI0
aI0
aI0
aI0
aI0
aI0
aI0
aI0
aaI00
a.(lp0
I95
aI2
aI-1
a(lp1
F4275.84
aF4381.92
aF4411.5
aF4361.01
aF4310.01
aF4490.04
aF4521.15
aF4082.55
aF4353.36
aF4328.37
aF4416.6
aF4026.96
aF4437.51
aF4458.42
aa(lp2
I0
aI0
aI0
aI0
aI0
aI0
aI0
aI0
aI0
aI0
aI0
aI0
aI0
aI0
aaI00
a.(lp0
I101
aI2
aI-1
a(lp1
F4409.46
aF4495.65
aF4556.34
aF4389.06
aF4432.41
aF4520.64
aF4527.78
aF4233.51
aF4477.29
aF4479.33
aF4536.45
aF4374.78
aF4592.55
aF4621.62
aa(lp2
I0
aI0
aI0
aI0
aI0
aI0
aI0
aI0
aI0
aI0
aI0
aI0
aI0
aI0
aaI00
a.(lp0
I106
aI2
aI-1
a(lp1
F4382.43
aF4498.71
aF4531.86
aF4365.6
aF4440.57
aF4509.42
aF4524.72
aF4218.21
aF4461.99
aF4488.51
aF4530.84
aF4449.75
aF4617.03
aF4609.38
aa(lp2
I0
aI0
aI0
aI0
aI0
aI0
aI0
aI0
aI0
aI0
aI0
aI0
aI0
aI0
aaI00
a.(lp0
I25
aI2
aI-1
a(lp1
F4223.31
aF4337.04
aF4384.47
aF4306.4400000000005
aF4279.92
aF4485.96
aF4521.15
aF4051.44
aF4308.4800000000005
aF4327.86
aF4400.79
aF4158.03
aF4435.9800000000005
aF4448.7300000000005
aa(lp2
I0
aI0
aI0
aI0
aI0
aI0
aI0
aI0
aI0
aI0
aI0
aI0
aI0
aI0
aaI00
a.(lp0
I30
aI2
aI-1
a(lp1
F4266.15
aF4342.14
aF4418.13
aF4307.46
aF4301.34
aF4500.24
aF4519.11
aF4076.4300000000003
aF4342.65
aF4336.02
aF4413.03
aF4005.03
aF4435.9800000000005
aF4477.8
aa(lp2
I0
aI0
aI0
aI0
aI0
aI0
aI0
aI0
aI0
aI0
aI0
aI0
aI0
aI0
aaI00
a.(lp0
I36
aI2
aI-1
a(lp1
F4388.55
aF4484.43
aF4536.45
aF4353.36
aF4426.8
aF4533.9
aF4526.25
aF4223.31
aF4473.21
aF4493.61
aF4542.06
aF4322.76
aF4613.46
aF4614.4800000000005
aa(lp2
I0
aI0
aI0
aI0
aI0
aI0
aI0
aI0
aI0
aI0
aI0
aI0
aI0
aI0
aaI00
a.(lp0
I42
aI2
aI-1
a(lp1
F4311.03
aF4395.18
aF4463.52
aF4296.75
aF4340.1
aF4495.14
aF4521.66
aF4124.88
aF4361.52
aF4415.58
aF4469.64
aF4228.92
aF4517.58
aF4541.55
aa(lp2
I0
aI0
aI0
aI0
aI0
aI0
aI0
aI0
aI0
aI0
aI0
aI0
aI0
aI0
aaI00
a.(lp0
I47
aI2
aI-1
a(lp1
F4275.84
aF4339.59
aF4413.03
aF4312.56
aF4301.34
aF4481.88
aF4519.11
aF4073.37
aF4322.25
aF4355.4
aF4437.51
aF4148.34
aF4460.97
aF4480.35
aa(lp2
I0
aI0
aI0
aI0
aI0
aI0
aI0
aI0
aI0
aI0
aI0
aI0
aI0
aI0
aaI00
a.(lp0
I53
aI2
aI-1
a(lp1
F4263.6
aF4367.13
aF4415.58
aF4310.52
aF4318.68
aF4502.28
aF4524.72
aF4094.28
aF4353.87
aF4367.64
aF4429.86
aF4004.52
aF4475.76
aF4468.11
aa(lp2
I0
aI0
aI0
aI0
aI0
aI0
aI0
aI0
aI0
aI0
aI0
aI0
aI0
aI0
aaI00
a.(lp0
I58
aI2
aI-1
a(lp1
F4306.95
aF4395.18
aF4459.4400000000005
aF4325.31
aF4346.22
aF4516.56
aF4522.68
aF4142.22
aF4403.34
aF4417.62
aF4467.09
aF4121.82
aF4541.55
aF4507.38
aa(lp2
I0
aI0
aI0
aI0
aI0
aI0
aI0
aI0
aI0
aI0
aI0
aI0
aI0
aI0
aaI00
a.(lp0
I63
aI2
aI-1
a(lp1
F4336.53
aF4433.9400000000005
aF4481.88
aF4341.12
aF4380.9
aF4518.09
aF4527.78
aF4176.9
aF4431.39
aF4452.3
aF4513.5
aF4275.84
aF4552.26
aF4544.61
aa(lp2
I0
aI0
aI0
aI0
aI0
aI0
aI0
aI0
aI0
aI0
aI0
aI0
aI0
aI0
aaI00
a.(lp0
I114
aI2
aI-1
a(lp1
F4371.21
aF4577.25
aF4520.13
aF4332.45
aF4403.34
aF4525.74
aF4524.72
aF4222.8
aF4460.46
aF4483.92
aF4559.4
aF4485.45
aF4595.61
aF4618.05
aa(lp2
I0
aI0
aI0
aI0
aI0
aI0
aI0
aI0
aI0
aI0
aI0
aI0
aI0
aI0
aaI00
a.(lp0
I119
aI2
aI-1
a(lp1
F4333.9800000000005
aF4553.79
aF4490.04
aF4300.32
aF4367.13
aF4506.87
aF4522.17
aF4190.67
aF4429.86
aF4468.11
aF4545.63
aF4300.83
aF4598.67
aF4575.72
aa(lp2
I0
aI0
aI0
aI0
aI0
aI0
aI0
aI0
aI0
aI0
aI0
aI0
aI0
aI0
aaI00
a.(lp0
I124
aI2
aI0
a(lp1
F4298.79
aF4533.39
aF4451.79
aF4277.88
aF4356.93
aF4502.28
aF4523.1900000000005
aF4150.38
aF4391.61
aF4425.27
aF4515.03
aF4255.4400000000005
aF4559.91
aF4545.63
aa(lp2
I0
aI0
aI0
aI0
aI0
aI0
aI0
aI0
aI0
aI0
aI0
aI0
aI0
aI0
aaI00
a.(lp0
I1
aI2
aI-1
a(lp1
F4199.85
aF4419.66
aF4353.87
aF4239.63
aF4250.34
aF4482.39
aF4519.11
aF4043.28
aF4300.32
aF4327.35
aF4417.11
aF3921.9
aF4438.53
aF4419.15
aa(lp2
I0
aI0
aI0
aI0
aI0
aI0
aI0
aI0
aI0
aI0
aI0
aI0
aI0
aI0
aaI00
a.(lp0
I7
aI2
aI-1
a(lp1
F4315.11
aF4534.92
aF4455.87
aF4324.8
aF4378.86
aF4529.82
aF4526.25
aF4179.96
aF4434.45
aF4432.92
aF4510.4400000000005
aF4364.58
aF4569.6
aF4532.88
aa(lp2
I0
aI0
aI0
aI0
aI0
aI0
aI0
aI0
aI0
aI0
aI0
aI0
aI0
aI0
aaI00
a.(lp0
I12
aI2
aI-1
a(lp1
F4345.2
aF4559.91
aF4486.47
aF4305.93
aF4414.05
aF4528.8
aF4525.74
aF4211.07
aF4462.5
aF4495.65
aF4543.59
aF4213.11
aF4606.83
aF4564.5
aa(lp2
I0
aI0
aI0
aI0
aI0
aI0
aI0
aI0
aI0
aI0
aI0
aI0
aI0
aI0
aaI00
a.(lp0
I17
aI2
aI-1
a(lp1
F4371.21
aF4575.72
aF4512.4800000000005
aF4336.53
aF4422.72
aF4524.72
aF4526.25
aF4226.37
aF4472.1900000000005
aF4502.28
aF4554.3
aF4437.51
aF4631.31
aF4596.12
aa(lp2
I0
aI0
aI0
aI0
aI0
aI0
aI0
aI0
aI0
aI0
aI0
aI0
aI0
aI0
aaI00
a.(lp0
I22
aI2
aI-1
a(lp1
F4366.62
aF4545.12
aF4493.61
aF4319.1900000000005
aF4389.57
aF4518.09
aF4525.74
aF4203.93
aF4441.59
aF4485.45
aF4543.08
aF4426.8
aF4612.4400000000005
aF4567.05
aa(lp2
I0
aI0
aI0
aI0
aI0
aI0
aI0
aI0
aI0
aI0
aI0
aI0
aI0
aI0
aaI00
a.(lp0
I74
aI2
aI-1
a(lp1
F4216.68
aF4364.07
aF4341.63
aF4243.71
aF4248.81
aF4491.57
aF4517.58
aF4021.35
aF4275.84
aF4289.61
aF4404.36
aF3935.67
aF4381.92
aF4393.14
aa(lp2
I0
aI0
aI0
aI0
aI0
aI0
aI0
aI0
aI0
aI0
aI0
aI0
aI0
aI0
aaI00
a.(lp0
I79
aI2
aI-1
a(lp1
F4193.22
aF4358.97
aF4322.25
aF4253.4
aF4217.1900000000005
aF4494.63
aF4520.13
aF4018.29
aF4280.43
aF4288.59
aF4390.59
aF3849.9900000000002
aF4398.24
aF4378.86
aa(lp2
I0
aI0
aI0
aI0
aI0
aI0
aI0
aI0
aI0
aI0
aI0
aI0
aI0
aI0
aaI00
a.(lp0
I85
aI2
aI-1
a(lp1
F4332.96
aF4488.0
aF4465.05
aF4321.2300000000005
aF4358.97
aF4537.9800000000005
aF4525.74
aF4173.84
aF4433.43
aF4440.57
aF4520.64
aF4297.77
aF4534.41
aF4532.37
aa(lp2
I0
aI0
aI0
aI0
aI0
aI0
aI0
aI0
aI0
aI0
aI0
aI0
aI0
aI0
aaI00
a.(lp0
I90
aI2
aI-1
a(lp1
F4375.8
aF4496.16
aF4493.61
aF4315.11
aF4387.02
aF4533.9
aF4526.76
aF4199.34
aF4445.67
aF4493.1
aF4543.59
aF4472.1900000000005
aF4584.39
aF4562.97
aa(lp2
I0
aI0
aI0
aI0
aI0
aI0
aI0
aI0
aI0
aI0
aI0
aI0
aI0
aI0
aaI00
a.(lp0
I95
aI2
aI-1
a(lp1
F4377.33
aF4520.64
aF4490.04
aF4322.76
aF4401.81
aF4528.8
aF4525.2300000000005
aF4202.4
aF4443.12
aF4480.35
aF4544.1
aF4369.68
aF4588.9800000000005
aF4577.76
aa(lp2
I0
aI0
aI0
aI0
aI0
aI0
aI0
aI0
aI0
aI0
aI0
aI0
aI0
aI0
aaI00
a.(lp0
I101
aI2
aI-1
a(lp1
F4220.25
aF4356.93
aF4342.14
aF4245.24
aF4245.24
aF4478.31
aF4521.66
aF4023.9
aF4273.29
aF4310.01
aF4399.26
aF3893.85
aF4388.55
aF4396.2
aa(lp2
I0
aI0
aI0
aI0
aI0
aI0
aI0
aI0
aI0
aI0
aI0
aI0
aI0
aI0
aaI00
a.(lp0
I106
aI2
aI0
a(lp1
F4219.74
aF4367.13
aF4343.67
aF4241.67
aF4242.18
aF4486.47
aF4518.09
aF4032.06
aF4285.02
aF4307.97
aF4412.52
aF3870.39
aF4429.35
aF4396.71
aa(lp2
I0
aI0
aI0
aI0
aI0
aI0
aI0
aI0
aI0
aI0
aI0
aI0
aI0
aI0
aaI00
a.(lp0
I112
aI2
aI-1
a(lp1
F4316.13
aF4472.7
aF4431.9
aF4297.26
aF4345.2
aF4526.25
aF4528.8
aF4144.26
aF4405.38
aF4404.87
aF4473.21
aF4346.22
aF4524.72
aF4496.16
aa(lp2
I0
aI0
aI0
aI0
aI0
aI0
aI0
aI0
aI0
aI0
aI0
aI0
aI0
aI0
aaI00
a.(lp0
I36
aI2
aI-1
a(lp1
F4217.7
aF4346.7300000000005
aF4337.04
aF4264.62
aF4236.06
aF4478.31
aF4517.07
aF4025.94
aF4273.8
aF4295.7300000000005
aF4404.36
aF3903.03
aF4418.64
aF4401.3
aa(lp2
I0
aI0
aI0
aI0
aI0
aI0
aI0
aI0
aI0
aI0
aI0
aI0
aI0
aI0
aaI00
a.(lp0
I42
aI2
aI-1
a(lp1
F4235.55
aF4375.29
aF4375.8
aF4260.54
aF4294.2
aF4508.91
aF4524.21
aF4056.54
aF4323.27
aF4319.7
aF4417.62
aF3998.91
aF4404.87
aF4416.6
aa(lp2
I0
aI0
aI0
aI0
aI0
aI0
aI0
aI0
aI0
aI0
aI0
aI0
aI0
aI0
aaI00
a.(lp0
I47
aI2
aI-1
a(lp1
F4289.61
aF4445.67
aF4426.29
aF4284.0
aF4346.22
aF4527.27
aF4526.25
aF4132.02
aF4396.71
aF4405.38
aF4482.9
aF4315.11
aF4508.91
aF4496.16
aa(lp2
I0
aI0
aI0
aI0
aI0
aI0
aI0
aI0
aI0
aI0
aI0
aI0
aI0
aI0
aaI00
a.(lp0
I53
aI2
aI-1
a(lp1
F4364.07
aF4493.61
aF4482.39
aF4335.51
aF4392.12
aF4521.15
aF4526.76
aF4194.24
aF4430.88
aF4468.11
aF4539.51
aF4354.89
aF4583.88
aF4576.74
aa(lp2
I0
aI0
aI0
aI0
aI0
aI0
aI0
aI0
aI0
aI0
aI0
aI0
aI0
aI0
aaI00
a.(lp0
I58
aI2
aI-1
a(lp1
F4343.67
aF4461.4800000000005
aF4450.77
aF4296.24
aF4375.29
aF4511.46
aF4522.68
aF4150.38
aF4388.55
aF4442.61
aF4495.65
aF4194.24
aF4545.63
aF4534.92
aa(lp2
I0
aI0
aI0
aI0
aI0
aI0
aI0
aI0
aI0
aI0
aI0
aI0
aI0
aI0
aaI00
a.(lp0
I64
aI2
aI0
a(lp1
F4237.59
aF4351.32
aF4352.85
aF4252.89
aF4254.93
aF4491.57
aF4517.58
aF4039.71
aF4293.18
aF4317.66
aF4409.46
aF4008.09
aF4407.93
aF4399.26
aa(lp2
I0
aI0
aI0
aI0
aI0
aI0
aI0
aI0
aI0
aI0
aI0
aI0
aI0
aI0
aaI00
a.(lp0
I69
aI2
aI-1
a(lp1
F4243.2
aF4358.97
aF4353.87
aF4264.62
aF4256.97
aF4501.26
aF4521.15
aF4054.5
aF4314.09
aF4339.59
aF4409.97
aF4056.03
aF4447.71
aF4422.72
aa(lp2
I0
aI0
aI0
aI0
aI0
aI0
aI0
aI0
aI0
aI0
aI0
aI0
aI0
aI0
aaI00
a.(lp0
I75
aI2
aI-1
a(lp1
F4388.04
aF4491.06
aF4485.96
aF4332.96
aF4415.07
aF4536.45
aF4529.82
aF4196.79
aF4449.24
aF4449.24
aF4526.76
aF4219.2300000000005
aF4557.87
aF4562.46
aa(lp2
I0
aI0
aI0
aI0
aI0
aI0
aI0
aI0
aI0
aI0
aI0
aI0
aI0
aI0
aaI00
a.(lp0
I1
aI2
aI-1
a(lp1
F4388.55
aF4520.13
aF4459.4400000000005
aF4296.75
aF4352.85
aF4531.86
aF4527.78
aF4183.02
aF4441.59
aF4449.75
aF4524.72
aF4351.83
aF4563.99
aF4548.6900000000005
aa(lp2
I0
aI0
aI0
aI0
aI0
aI0
aI0
aI0
aI0
aI0
aI0
aI0
aI0
aI0
aaI00
a.(lp0
I6
aI2
aI-1
a(lp1
F4409.97
aF4565.52
aF4479.84
aF4322.76
aF4410.4800000000005
aF4535.43
aF4527.27
aF4215.66
aF4458.42
aF4484.43
aF4540.02
aF4516.05
aF4597.14
aF4596.63
aa(lp2
I0
aI0
aI0
aI0
aI0
aI0
aI0
aI0
aI0
aI0
aI0
aI0
aI0
aI0
aaI00
a.(lp0
I11
aI2
aI-1
a(lp1
F4382.43
aF4555.83
aF4454.85
aF4321.2300000000005
aF4371.21
aF4514.01
aF4524.21
aF4191.18
aF4423.74
aF4467.6
aF4531.86
aF4312.56
aF4582.35
aF4560.93
aa(lp2
I0
aI0
aI0
aI0
aI0
aI0
aI0
aI0
aI0
aI0
aI0
aI0
aI0
aI0
aaI00
a.(lp0
I17
aI2
aI-1
a(lp1
F4255.95
aF4409.97
aF4330.92
aF4219.74
aF4219.2300000000005
aF4483.92
aF4520.13
aF4023.9
aF4271.25
aF4308.99
aF4370.1900000000005
aF3859.6800000000003
aF4401.81
aF4400.79
aa(lp2
I0
aI0
aI0
aI0
aI0
aI0
aI0
aI0
aI0
aI0
aI0
aI0
aI0
aI0
aaI00
a.(lp0
I22
aI2
aI-1
a(lp1
F4243.2
aF4466.07
aF4321.74
aF4249.32
aF4245.24
aF4489.02
aF4517.58
aF4043.28
aF4297.77
aF4310.52
aF4399.26
aF3967.8
aF4413.03
aF4408.95
aa(lp2
I0
aI0
aI0
aI0
aI0
aI0
aI0
aI0
aI0
aI0
aI0
aI0
aI0
aI0
aaI00
a.(lp0
I28
aI2
aI-1
a(lp1
F4360.5
aF4573.17
aF4439.04
aF4297.26
aF4355.91
aF4540.53
aF4528.8
aF4173.33
aF4430.37
aF4431.39
aF4480.35
aF4356.42
aF4543.08
aF4534.41
aa(lp2
I0
aI0
aI0
aI0
aI0
aI0
aI0
aI0
aI0
aI0
aI0
aI0
aI0
aI0
aaI00
a.(lp0
I33
aI2
aI-1
a(lp1
F4396.71
aF4598.16
aF4478.31
aF4320.72
aF4394.67
aF4539.51
aF4528.29
aF4211.58
aF4455.87
aF4465.05
aF4508.91
aF4216.68
aF4572.66
aF4568.58
aa(lp2
I0
aI0
aI0
aI0
aI0
aI0
aI0
aI0
aI0
aI0
aI0
aI0
aI0
aI0
aaI00
a.(lp0
I39
aI2
aI-1
a(lp1
F4340.61
aF4537.9800000000005
aF4426.8
aF4282.47
aF4329.39
aF4507.89
aF4524.72
aF4139.16
aF4371.72
aF4419.15
aF4477.29
aF4231.47
aF4539.51
aF4509.42
aa(lp2
I0
aI0
aI0
aI0
aI0
aI0
aI0
aI0
aI0
aI0
aI0
aI0
aI0
aI0
aaI00
a.(lp0
I96
aI2
aI-1
a(lp1
F4307.97
aF4508.4
aF4379.88
aF4251.87
aF4278.9
aF4517.07
aF4523.7
aF4092.75
aF4357.4400000000005
aF4356.42
aF4437.0
aF4021.86
aF4439.55
aF4456.38
aa(lp2
I0
aI0
aI0
aI0
aI0
aI0
aI0
aI0
aI0
aI0
aI0
aI0
aI0
aI0
aaI00
a.(lp0
I101
aI2
aI-1
a(lp1
F4318.17
aF4565.52
aF4389.06
aF4304.91
aF4346.7300000000005
aF4533.39
aF4525.74
aF4143.24
aF4404.36
aF4410.4800000000005
aF4468.11
aF4111.11
aF4511.46
aF4475.25
aa(lp2
I0
aI0
aI0
aI0
aI0
aI0
aI0
aI0
aI0
aI0
aI0
aI0
aI0
aI0
aaI00
a.(lp0
I107
aI2
aI-1
a(lp1
F4385.49
aF4630.29
aF4466.07
aF4326.84
aF4420.17
aF4535.9400000000005
aF4527.27
aF4201.38
aF4447.2
aF4480.35
aF4518.6
aF4431.9
aF4565.01
aF4558.38
aa(lp2
I0
aI0
aI0
aI0
aI0
aI0
aI0
aI0
aI0
aI0
aI0
aI0
aI0
aI0
aaI00
a.(lp0
I112
aI2
aI-1
a(lp1
F4339.59
aF4565.01
aF4426.8
aF4293.18
aF4329.9
aF4512.99
aF4525.2300000000005
aF4151.4
aF4391.1
aF4453.83
aF4496.67
aF4331.43
aF4520.13
aF4545.12
aa(lp2
I0
aI0
aI0
aI0
aI0
aI0
aI0
aI0
aI0
aI0
aI0
aI0
aI0
aI0
aaI00
a.(lp0
I117
aI2
aI-1
a(lp1
F4291.14
aF4510.95
aF4371.21
aF4272.27
aF4295.7300000000005
aF4495.65
aF4522.68
aF4088.67
aF4330.92
aF4365.6
aF4449.24
aF4155.4800000000005
aF4467.09
aF4473.72
aa(lp2
I0
aI0
aI0
aI0
aI0
aI0
aI0
aI0
aI0
aI0
aI0
aI0
aI0
aI0
aaI00
a.(lp0
I123
aI2
aI0
a(lp1
F4205.97
aF4450.77
aF4296.24
aF4260.03
aF4196.79
aF4491.06
aF4523.7
aF4017.78
aF4286.04
aF4299.81
aF4380.9
aF3806.64
aF4374.78
aF4374.78
aa(lp2
I0
aI0
aI0
aI0
aI0
aI0
aI0
aI0
aI0
aI0
aI0
aI0
aI0
aI0
aaI00
a.(lp0
I128
aI2
aI-1
a(lp1
F4261.05
aF4505.85
aF4328.88
aF4292.67
aF4266.66
aF4514.52
aF4522.17
aF4067.76
aF4336.02
aF4339.59
aF4410.99
aF4012.6800000000003
aF4414.05
aF4422.72
aa(lp2
I0
aI0
aI0
aI0
aI0
aI0
aI0
aI0
aI0
aI0
aI0
aI0
aI0
aI0
aaI00
a.(lp0
I5
aI2
aI-1
a(lp1
F4397.7300000000005
aF4621.11
aF4470.15
aF4347.75
aF4379.88
aF4532.37
aF4524.72
aF4205.97
aF4456.89
aF4479.84
aF4532.88
aF4472.1900000000005
aF4584.39
aF4571.13
aa(lp2
I0
aI0
aI0
aI0
aI0
aI0
aI0
aI0
aI0
aI0
aI0
aI0
aI0
aI0
aaI00
a.(lp0
I64
aI2
aI-1
a(lp1
F4371.21
aF4543.59
aF4437.0
aF4318.68
aF4356.93
aF4536.96
aF4525.74
aF4178.43
aF4435.9800000000005
aF4441.59
aF4518.6
aF4327.35
aF4546.65
aF4547.16
aa(lp2
I0
aI0
aI0
aI0
aI0
aI0
aI0
aI0
aI0
aI0
aI0
aI0
aI0
aI0
aaI00
a.(lp0
I69
aI2
aI-1
a(lp1
F4392.12
aF4571.13
aF4475.76
aF4335.0
aF4401.3
aF4533.39
aF4528.29
aF4205.97
aF4450.77
aF4481.88
aF4542.57
aF4480.86
aF4563.99
aF4604.79
aa(lp2
I0
aI0
aI0
aI0
aI0
aI0
aI0
aI0
aI0
aI0
aI0
aI0
aI0
aI0
aaI00
a.(lp0
I74
aI2
aI-1
a(lp1
F4385.49
aF4560.42
aF4470.15
aF4325.31
aF4406.91
aF4527.78
aF4525.2300000000005
aF4198.32
aF4434.45
aF4465.56
aF4527.27
aF4375.29
aF4557.36
aF4604.79
aa(lp2
I0
aI0
aI0
aI0
aI0
aI0
aI0
aI0
aI0
aI0
aI0
aI0
aI0
aI0
aaI00
a.(lp0
I81
aI2
aI-1
a(lp1
F4219.74
aF4391.1
aF4304.4
aF4268.1900000000005
aF4217.1900000000005
aF4497.18
aF4521.66
aF4021.35
aF4292.67
aF4296.75
aF4381.41
aF3846.42
aF4367.64
aF4414.05
aa(lp2
I0
aI0
aI0
aI0
aI0
aI0
aI0
aI0
aI0
aI0
aI0
aI0
aI0
aI0
aaI00
a.(lp0
I88
aI2
aI-1
a(lp1
F4364.58
aF4511.97
aF4451.79
aF4317.66
aF4373.25
aF4524.72
aF4521.66
aF4180.47
aF4419.66
aF4464.54
aF4543.59
aF4409.97
aF4567.56
aF4585.92
aa(lp2
I0
aI0
aI0
aI0
aI0
aI0
aI0
aI0
aI0
aI0
aI0
aI0
aI0
aI0
aaI00
a.(lp0
I93
aI2
aI-1
a(lp1
F4314.09
aF4461.4800000000005
aF4408.95
aF4302.87
aF4324.29
aF4508.91
aF4520.64
aF4119.78
aF4362.54
aF4409.97
aF4484.43
aF4277.88
aF4500.75
aF4530.33
aa(lp2
I0
aI0
aI0
aI0
aI0
aI0
aI0
aI0
aI0
aI0
aI0
aI0
aI0
aI0
aaI00
a.(lp0
I99
aI2
aI-1
a(lp1
F4214.64
aF4352.85
aF4293.6900000000005
aF4287.06
aF4203.93
aF4496.16
aF4522.68
aF4011.15
aF4278.9
aF4290.12
aF4393.14
aF3851.52
aF4372.74
aF4414.56
aa(lp2
I0
aI0
aI0
aI0
aI0
aI0
aI0
aI0
aI0
aI0
aI0
aI0
aI0
aI0
aaI00
a.(lp0
I104
aI2
aI-1
a(lp1
F4239.12
aF4358.97
aF4326.84
aF4296.24
aF4225.35
aF4506.36
aF4520.64
aF4034.1
aF4304.91
aF4295.22
aF4401.81
aF3877.53
aF4389.57
aF4423.2300000000005
aa(lp2
I0
aI0
aI0
aI0
aI0
aI0
aI0
aI0
aI0
aI0
aI0
aI0
aI0
aI0
aaI00
a.(lp0
I37
aI2
aI-1
a(lp1
F4349.28
aF4417.62
aF4434.96
aF4384.9800000000005
aF4320.21
aF4516.56
aF4523.1900000000005
aF4149.36
aF4385.49
aF4445.16
aF4518.09
aF4257.4800000000005
aF4535.9400000000005
aF4543.59
aa(lp2
I0
aI0
aI0
aI0
aI0
aI0
aI0
aI0
aI0
aI0
aI0
aI0
aI0
aI0
aaI00
a.(lp0
I43
aI2
aI-1
a(lp1
F4237.08
aF4346.7300000000005
aF4326.33
aF4356.42
aF4236.06
aF4496.67
aF4520.64
aF4041.75
aF4291.65
aF4316.64
aF4414.56
aF3938.73
aF4392.63
aF4422.72
aa(lp2
I0
aI0
aI0
aI0
aI0
aI0
aI0
aI0
aI0
aI0
aI0
aI0
aI0
aI0
aaI00
a.(lp0
I48
aI2
aI0
a(lp1
F4262.58
aF4342.14
aF4347.75
aF4366.11
aF4237.08
aF4502.79
aF4519.62
aF4060.62
aF4318.17
aF4324.8
aF4422.72
aF4090.2000000000003
aF4422.72
aF4442.61
aa(lp2
I0
aI0
aI0
aI0
aI0
aI0
aI0
aI0
aI0
aI0
aI0
aI0
aI0
aI0
aaI00
a.(lp0
I53
aI2
aI-1
a(lp1
F4275.84
aF4384.9800000000005
aF4367.64
aF4371.72
aF4294.71
aF4518.09
aF4525.2300000000005
aF4096.32
aF4357.95
aF4357.95
aF4438.53
aF4025.94
aF4447.71
aF4472.7
aa(lp2
I0
aI0
aI0
aI0
aI0
aI0
aI0
aI0
aI0
aI0
aI0
aI0
aI0
aI0
aaI00
a.(lp0
I58
aI2
aI0
a(lp1
F4313.07
aF4439.04
aF4403.85
aF4393.65
aF4333.47
aF4534.92
aF4525.74
aF4140.6900000000005
aF4406.4
aF4407.93
aF4489.02
aF4114.68
aF4522.68
aF4497.18
aa(lp2
I0
aI0
aI0
aI0
aI0
aI0
aI0
aI0
aI0
aI0
aI0
aI0
aI0
aI0
aaI00
a.(lp0
I63
aI2
aI-1
a(lp1
F4351.32
aF4447.71
aF4442.1
aF4392.12
aF4357.95
aF4536.45
aF4523.7
aF4170.27
aF4425.27
aF4438.02
aF4486.9800000000005
aF4289.1
aF4534.92
aF4547.67
aa(lp2
I0
aI0
aI0
aI0
aI0
aI0
aI0
aI0
aI0
aI0
aI0
aI0
aI0
aI0
aaI00
a.(lp0
I69
aI2
aI-1
a(lp1
F4331.9400000000005
aF4441.59
aF4423.2300000000005
aF4387.53
aF4347.24
aF4520.64
aF4524.21
aF4148.34
aF4387.53
aF4445.16
aF4512.4800000000005
aF4337.04
aF4520.64
aF4554.3
aa(lp2
I0
aI0
aI0
aI0
aI0
aI0
aI0
aI0
aI0
aI0
aI0
aI0
aI0
aI0
aaI00
a.(lp0
I74
aI2
aI-1
a(lp1
F4298.79
aF4368.15
aF4384.9800000000005
aF4305.93
aF4303.38
aF4497.6900000000005
aF4520.64
aF4081.53
aF4324.8
aF4373.76
aF4458.93
aF4139.16
aF4466.58
aF4492.59
aa(lp2
I0
aI0
aI0
aI0
aI0
aI0
aI0
aI0
aI0
aI0
aI0
aI0
aI0
aI0
aaI00
a.